
enclave.so:     file format elf64-x86-64


Disassembly of section .plt:

0000000000000ad0 <.plt>:
 ad0:	ff 35 f2 54 22 00    	pushq  0x2254f2(%rip)        # 225fc8 <_GLOBAL_OFFSET_TABLE_+0x8>
 ad6:	ff 25 f4 54 22 00    	jmpq   *0x2254f4(%rip)        # 225fd0 <_GLOBAL_OFFSET_TABLE_+0x10>
 adc:	0f 1f 40 00          	nopl   0x0(%rax)

Disassembly of section .plt.got:

0000000000000ae0 <.plt.got>:
 ae0:	ff 25 fa 54 22 00    	jmpq   *0x2254fa(%rip)        # 225fe0 <_GLOBAL_OFFSET_TABLE_+0x20>
 ae6:	66 90                	xchg   %ax,%ax
 ae8:	ff 25 0a 55 22 00    	jmpq   *0x22550a(%rip)        # 225ff8 <_GLOBAL_OFFSET_TABLE_+0x38>
 aee:	66 90                	xchg   %ax,%ax

Disassembly of section .text:

0000000000000af0 <_GLOBAL__sub_I_hash.cpp>:
     af0:	0f 57 c0             	xorps  %xmm0,%xmm0
     af3:	0f 11 05 86 5a 22 00 	movups %xmm0,0x225a86(%rip)        # 226580 <interval_set>
     afa:	48 c7 05 8b 5a 22 00 	movq   $0x0,0x225a8b(%rip)        # 226590 <interval_set+0x10>
     b01:	00 00 00 00 
     b05:	48 8d 35 74 5a 22 00 	lea    0x225a74(%rip),%rsi        # 226580 <interval_set>
     b0c:	48 8d 3d ed 02 00 00 	lea    0x2ed(%rip),%rdi        # e00 <_ZNSt3__113__vector_baseI8IntervalNS_9allocatorIS1_EEED2Ev>
     b13:	48 8d 15 16 55 22 00 	lea    0x225516(%rip),%rdx        # 226030 <__dso_handle>
     b1a:	e9 21 54 00 00       	jmpq   5f40 <__cxa_atexit>
     b1f:	90                   	nop

0000000000000b20 <sgx_test_ecall>:
     b20:	48 85 ff             	test   %rdi,%rdi
     b23:	74 0b                	je     b30 <sgx_test_ecall+0x10>
     b25:	b8 02 00 00 00       	mov    $0x2,%eax
     b2a:	c3                   	retq   
     b2b:	0f 1f 44 00 00       	nopl   0x0(%rax,%rax,1)
     b30:	48 83 ec 08          	sub    $0x8,%rsp
     b34:	e8 a7 01 00 00       	callq  ce0 <test_ecall>
     b39:	31 c0                	xor    %eax,%eax
     b3b:	48 83 c4 08          	add    $0x8,%rsp
     b3f:	c3                   	retq   

0000000000000b40 <ocall_print_string>:
     b40:	48 85 ff             	test   %rdi,%rdi
     b43:	41 54                	push   %r12
     b45:	55                   	push   %rbp
     b46:	53                   	push   %rbx
     b47:	74 77                	je     bc0 <ocall_print_string+0x80>
     b49:	48 89 fb             	mov    %rdi,%rbx
     b4c:	e8 bf 8e 00 00       	callq  9a10 <strlen>
     b51:	4c 8d 60 01          	lea    0x1(%rax),%r12
     b55:	48 89 df             	mov    %rbx,%rdi
     b58:	48 89 c5             	mov    %rax,%rbp
     b5b:	4c 89 e6             	mov    %r12,%rsi
     b5e:	e8 4d 2c 00 00       	callq  37b0 <sgx_is_within_enclave>
     b63:	85 c0                	test   %eax,%eax
     b65:	ba 02 00 00 00       	mov    $0x2,%edx
     b6a:	75 0c                	jne    b78 <ocall_print_string+0x38>
     b6c:	5b                   	pop    %rbx
     b6d:	89 d0                	mov    %edx,%eax
     b6f:	5d                   	pop    %rbp
     b70:	41 5c                	pop    %r12
     b72:	c3                   	retq   
     b73:	0f 1f 44 00 00       	nopl   0x0(%rax,%rax,1)
     b78:	48 8d 7d 09          	lea    0x9(%rbp),%rdi
     b7c:	49 39 fc             	cmp    %rdi,%r12
     b7f:	77 eb                	ja     b6c <ocall_print_string+0x2c>
     b81:	e8 aa 2c 00 00       	callq  3830 <sgx_ocalloc>
     b86:	48 85 c0             	test   %rax,%rax
     b89:	48 89 c5             	mov    %rax,%rbp
     b8c:	74 44                	je     bd2 <ocall_print_string+0x92>
     b8e:	48 8d 7d 08          	lea    0x8(%rbp),%rdi
     b92:	4c 89 e1             	mov    %r12,%rcx
     b95:	48 89 da             	mov    %rbx,%rdx
     b98:	4c 89 e6             	mov    %r12,%rsi
     b9b:	48 89 7d 00          	mov    %rdi,0x0(%rbp)
     b9f:	e8 6c 8f 00 00       	callq  9b10 <memcpy_s>
     ba4:	85 c0                	test   %eax,%eax
     ba6:	75 2a                	jne    bd2 <ocall_print_string+0x92>
     ba8:	48 89 ee             	mov    %rbp,%rsi
     bab:	31 ff                	xor    %edi,%edi
     bad:	e8 4e 43 00 00       	callq  4f00 <sgx_ocall>
     bb2:	89 c3                	mov    %eax,%ebx
     bb4:	e8 57 2d 00 00       	callq  3910 <sgx_ocfree>
     bb9:	89 da                	mov    %ebx,%edx
     bbb:	eb af                	jmp    b6c <ocall_print_string+0x2c>
     bbd:	0f 1f 00             	nopl   (%rax)
     bc0:	bf 08 00 00 00       	mov    $0x8,%edi
     bc5:	e8 66 2c 00 00       	callq  3830 <sgx_ocalloc>
     bca:	48 85 c0             	test   %rax,%rax
     bcd:	48 89 c5             	mov    %rax,%rbp
     bd0:	75 0e                	jne    be0 <ocall_print_string+0xa0>
     bd2:	e8 39 2d 00 00       	callq  3910 <sgx_ocfree>
     bd7:	ba 01 00 00 00       	mov    $0x1,%edx
     bdc:	eb 8e                	jmp    b6c <ocall_print_string+0x2c>
     bde:	66 90                	xchg   %ax,%ax
     be0:	48 c7 45 00 00 00 00 	movq   $0x0,0x0(%rbp)
     be7:	00 
     be8:	eb be                	jmp    ba8 <ocall_print_string+0x68>
     bea:	66 0f 1f 44 00 00    	nopw   0x0(%rax,%rax,1)

0000000000000bf0 <sgx_oc_cpuidex>:
     bf0:	41 55                	push   %r13
     bf2:	41 54                	push   %r12
     bf4:	41 89 f4             	mov    %esi,%r12d
     bf7:	55                   	push   %rbp
     bf8:	53                   	push   %rbx
     bf9:	89 d5                	mov    %edx,%ebp
     bfb:	48 83 ec 08          	sub    $0x8,%rsp
     bff:	48 85 ff             	test   %rdi,%rdi
     c02:	74 4c                	je     c50 <sgx_oc_cpuidex+0x60>
     c04:	be 10 00 00 00       	mov    $0x10,%esi
     c09:	48 89 fb             	mov    %rdi,%rbx
     c0c:	e8 9f 2b 00 00       	callq  37b0 <sgx_is_within_enclave>
     c11:	85 c0                	test   %eax,%eax
     c13:	ba 02 00 00 00       	mov    $0x2,%edx
     c18:	75 16                	jne    c30 <sgx_oc_cpuidex+0x40>
     c1a:	48 83 c4 08          	add    $0x8,%rsp
     c1e:	89 d0                	mov    %edx,%eax
     c20:	5b                   	pop    %rbx
     c21:	5d                   	pop    %rbp
     c22:	41 5c                	pop    %r12
     c24:	41 5d                	pop    %r13
     c26:	c3                   	retq   
     c27:	66 0f 1f 84 00 00 00 	nopw   0x0(%rax,%rax,1)
     c2e:	00 00 
     c30:	bf 20 00 00 00       	mov    $0x20,%edi
     c35:	e8 f6 2b 00 00       	callq  3830 <sgx_ocalloc>
     c3a:	48 85 c0             	test   %rax,%rax
     c3d:	75 49                	jne    c88 <sgx_oc_cpuidex+0x98>
     c3f:	e8 cc 2c 00 00       	callq  3910 <sgx_ocfree>
     c44:	ba 01 00 00 00       	mov    $0x1,%edx
     c49:	eb cf                	jmp    c1a <sgx_oc_cpuidex+0x2a>
     c4b:	0f 1f 44 00 00       	nopl   0x0(%rax,%rax,1)
     c50:	bf 10 00 00 00       	mov    $0x10,%edi
     c55:	e8 d6 2b 00 00       	callq  3830 <sgx_ocalloc>
     c5a:	48 85 c0             	test   %rax,%rax
     c5d:	74 e0                	je     c3f <sgx_oc_cpuidex+0x4f>
     c5f:	89 68 0c             	mov    %ebp,0xc(%rax)
     c62:	48 c7 00 00 00 00 00 	movq   $0x0,(%rax)
     c69:	48 89 c6             	mov    %rax,%rsi
     c6c:	44 89 60 08          	mov    %r12d,0x8(%rax)
     c70:	bf 01 00 00 00       	mov    $0x1,%edi
     c75:	e8 86 42 00 00       	callq  4f00 <sgx_ocall>
     c7a:	89 c5                	mov    %eax,%ebp
     c7c:	e8 8f 2c 00 00       	callq  3910 <sgx_ocfree>
     c81:	89 ea                	mov    %ebp,%edx
     c83:	eb 95                	jmp    c1a <sgx_oc_cpuidex+0x2a>
     c85:	0f 1f 00             	nopl   (%rax)
     c88:	4c 8d 68 10          	lea    0x10(%rax),%r13
     c8c:	48 c7 40 10 00 00 00 	movq   $0x0,0x10(%rax)
     c93:	00 
     c94:	48 89 c6             	mov    %rax,%rsi
     c97:	bf 01 00 00 00       	mov    $0x1,%edi
     c9c:	4c 89 28             	mov    %r13,(%rax)
     c9f:	49 c7 45 08 00 00 00 	movq   $0x0,0x8(%r13)
     ca6:	00 
     ca7:	89 68 0c             	mov    %ebp,0xc(%rax)
     caa:	44 89 60 08          	mov    %r12d,0x8(%rax)
     cae:	e8 4d 42 00 00       	callq  4f00 <sgx_ocall>
     cb3:	85 c0                	test   %eax,%eax
     cb5:	89 c5                	mov    %eax,%ebp
     cb7:	75 c3                	jne    c7c <sgx_oc_cpuidex+0x8c>
     cb9:	b9 10 00 00 00       	mov    $0x10,%ecx
     cbe:	4c 89 ea             	mov    %r13,%rdx
     cc1:	be 10 00 00 00       	mov    $0x10,%esi
     cc6:	48 89 df             	mov    %rbx,%rdi
     cc9:	e8 42 8e 00 00       	callq  9b10 <memcpy_s>
     cce:	85 c0                	test   %eax,%eax
     cd0:	74 aa                	je     c7c <sgx_oc_cpuidex+0x8c>
     cd2:	e9 68 ff ff ff       	jmpq   c3f <sgx_oc_cpuidex+0x4f>
     cd7:	66 0f 1f 84 00 00 00 	nopw   0x0(%rax,%rax,1)
     cde:	00 00 

0000000000000ce0 <test_ecall>:
     ce0:	48 8d 3d c9 06 02 00 	lea    0x206c9(%rip),%rdi        # 213b0 <g_dyn_entry_table+0x10>
     ce7:	48 83 ec 08          	sub    $0x8,%rsp
     ceb:	31 c0                	xor    %eax,%eax
     ced:	e8 0e 00 00 00       	callq  d00 <_Z11debugprintfPKcz>
     cf2:	48 83 c4 08          	add    $0x8,%rsp
     cf6:	e9 e5 15 00 00       	jmpq   22e0 <_Z9hash_testv>
     cfb:	0f 1f 44 00 00       	nopl   0x0(%rax,%rax,1)

0000000000000d00 <_Z11debugprintfPKcz>:
     d00:	41 56                	push   %r14
     d02:	53                   	push   %rbx
     d03:	48 81 ec d8 20 00 00 	sub    $0x20d8,%rsp
     d0a:	49 89 fe             	mov    %rdi,%r14
     d0d:	84 c0                	test   %al,%al
     d0f:	74 37                	je     d48 <_Z11debugprintfPKcz+0x48>
     d11:	0f 29 44 24 50       	movaps %xmm0,0x50(%rsp)
     d16:	0f 29 4c 24 60       	movaps %xmm1,0x60(%rsp)
     d1b:	0f 29 54 24 70       	movaps %xmm2,0x70(%rsp)
     d20:	0f 29 9c 24 80 00 00 	movaps %xmm3,0x80(%rsp)
     d27:	00 
     d28:	0f 29 a4 24 90 00 00 	movaps %xmm4,0x90(%rsp)
     d2f:	00 
     d30:	0f 29 ac 24 a0 00 00 	movaps %xmm5,0xa0(%rsp)
     d37:	00 
     d38:	0f 29 b4 24 b0 00 00 	movaps %xmm6,0xb0(%rsp)
     d3f:	00 
     d40:	0f 29 bc 24 c0 00 00 	movaps %xmm7,0xc0(%rsp)
     d47:	00 
     d48:	4c 89 4c 24 48       	mov    %r9,0x48(%rsp)
     d4d:	4c 89 44 24 40       	mov    %r8,0x40(%rsp)
     d52:	48 89 4c 24 38       	mov    %rcx,0x38(%rsp)
     d57:	48 89 54 24 30       	mov    %rdx,0x30(%rsp)
     d5c:	48 89 74 24 28       	mov    %rsi,0x28(%rsp)
     d61:	64 48 8b 04 25 28 00 	mov    %fs:0x28,%rax
     d68:	00 00 
     d6a:	48 89 84 24 d0 20 00 	mov    %rax,0x20d0(%rsp)
     d71:	00 
     d72:	48 8d 9c 24 d0 00 00 	lea    0xd0(%rsp),%rbx
     d79:	00 
     d7a:	ba 00 20 00 00       	mov    $0x2000,%edx
     d7f:	48 89 df             	mov    %rbx,%rdi
     d82:	31 f6                	xor    %esi,%esi
     d84:	e8 17 89 00 00       	callq  96a0 <memset>
     d89:	48 8d 44 24 20       	lea    0x20(%rsp),%rax
     d8e:	48 89 44 24 10       	mov    %rax,0x10(%rsp)
     d93:	48 8d 84 24 f0 20 00 	lea    0x20f0(%rsp),%rax
     d9a:	00 
     d9b:	48 89 44 24 08       	mov    %rax,0x8(%rsp)
     da0:	48 b8 08 00 00 00 30 	movabs $0x3000000008,%rax
     da7:	00 00 00 
     daa:	48 89 04 24          	mov    %rax,(%rsp)
     dae:	48 89 e1             	mov    %rsp,%rcx
     db1:	be 00 20 00 00       	mov    $0x2000,%esi
     db6:	48 89 df             	mov    %rbx,%rdi
     db9:	4c 89 f2             	mov    %r14,%rdx
     dbc:	e8 9f 8c 00 00       	callq  9a60 <vsnprintf>
     dc1:	48 89 df             	mov    %rbx,%rdi
     dc4:	e8 77 fd ff ff       	callq  b40 <ocall_print_string>
     dc9:	be ff 1f 00 00       	mov    $0x1fff,%esi
     dce:	48 89 df             	mov    %rbx,%rdi
     dd1:	e8 5a 8c 00 00       	callq  9a30 <strnlen>
     dd6:	64 48 8b 0c 25 28 00 	mov    %fs:0x28,%rcx
     ddd:	00 00 
     ddf:	48 3b 8c 24 d0 20 00 	cmp    0x20d0(%rsp),%rcx
     de6:	00 
     de7:	75 0e                	jne    df7 <_Z11debugprintfPKcz+0xf7>
     de9:	83 c0 01             	add    $0x1,%eax
     dec:	48 81 c4 d8 20 00 00 	add    $0x20d8,%rsp
     df3:	5b                   	pop    %rbx
     df4:	41 5e                	pop    %r14
     df6:	c3                   	retq   
     df7:	e8 d4 53 00 00       	callq  61d0 <__stack_chk_fail>
     dfc:	0f 1f 40 00          	nopl   0x0(%rax)

0000000000000e00 <_ZNSt3__113__vector_baseI8IntervalNS_9allocatorIS1_EEED2Ev>:
     e00:	48 89 f8             	mov    %rdi,%rax
     e03:	48 8b 3f             	mov    (%rdi),%rdi
     e06:	48 85 ff             	test   %rdi,%rdi
     e09:	74 27                	je     e32 <_ZNSt3__113__vector_baseI8IntervalNS_9allocatorIS1_EEED2Ev+0x32>
     e0b:	48 8b 48 08          	mov    0x8(%rax),%rcx
     e0f:	48 39 f9             	cmp    %rdi,%rcx
     e12:	74 19                	je     e2d <_ZNSt3__113__vector_baseI8IntervalNS_9allocatorIS1_EEED2Ev+0x2d>
     e14:	48 8d 51 f0          	lea    -0x10(%rcx),%rdx
     e18:	48 29 fa             	sub    %rdi,%rdx
     e1b:	48 c1 ea 04          	shr    $0x4,%rdx
     e1f:	48 f7 d2             	not    %rdx
     e22:	48 c1 e2 04          	shl    $0x4,%rdx
     e26:	48 01 ca             	add    %rcx,%rdx
     e29:	48 89 50 08          	mov    %rdx,0x8(%rax)
     e2d:	e9 1e 8b 01 00       	jmpq   19950 <_ZdlPv>
     e32:	c3                   	retq   
     e33:	66 2e 0f 1f 84 00 00 	nopw   %cs:0x0(%rax,%rax,1)
     e3a:	00 00 00 
     e3d:	0f 1f 00             	nopl   (%rax)

0000000000000e40 <_Z6mycomp8IntervalS_>:
     e40:	48 39 d7             	cmp    %rdx,%rdi
     e43:	0f 92 c0             	setb   %al
     e46:	c3                   	retq   
     e47:	66 0f 1f 84 00 00 00 	nopw   0x0(%rax,%rax,1)
     e4e:	00 00 

0000000000000e50 <_Z14mergeIntervalsNSt3__16vectorI8IntervalNS_9allocatorIS1_EEEE>:
     e50:	55                   	push   %rbp
     e51:	41 56                	push   %r14
     e53:	41 55                	push   %r13
     e55:	41 54                	push   %r12
     e57:	53                   	push   %rbx
     e58:	48 83 ec 20          	sub    $0x20,%rsp
     e5c:	48 89 fb             	mov    %rdi,%rbx
     e5f:	48 8b 3f             	mov    (%rdi),%rdi
     e62:	48 8b 73 08          	mov    0x8(%rbx),%rsi
     e66:	49 89 f6             	mov    %rsi,%r14
     e69:	49 29 fe             	sub    %rdi,%r14
     e6c:	49 c1 ee 04          	shr    $0x4,%r14
     e70:	48 8d 05 c9 ff ff ff 	lea    -0x37(%rip),%rax        # e40 <_Z6mycomp8IntervalS_>
     e77:	48 89 44 24 18       	mov    %rax,0x18(%rsp)
     e7c:	48 8d 54 24 18       	lea    0x18(%rsp),%rdx
     e81:	e8 9a 16 00 00       	callq  2520 <_ZNSt3__16__sortIRPFb8IntervalS1_EPS1_EEvT0_S6_T_>
     e86:	48 8d 3d 63 05 02 00 	lea    0x20563(%rip),%rdi        # 213f0 <g_dyn_entry_table+0x50>
     e8d:	31 ed                	xor    %ebp,%ebp
     e8f:	31 c0                	xor    %eax,%eax
     e91:	e8 6a fe ff ff       	callq  d00 <_Z11debugprintfPKcz>
     e96:	45 85 f6             	test   %r14d,%r14d
     e99:	0f 8e 52 04 00 00    	jle    12f1 <_Z14mergeIntervalsNSt3__16vectorI8IntervalNS_9allocatorIS1_EEEE+0x4a1>
     e9f:	4c 89 34 24          	mov    %r14,(%rsp)
     ea3:	45 89 f4             	mov    %r14d,%r12d
     ea6:	45 31 ed             	xor    %r13d,%r13d
     ea9:	31 ed                	xor    %ebp,%ebp
     eab:	0f 1f 44 00 00       	nopl   0x0(%rax,%rax,1)
     eb0:	48 8b 03             	mov    (%rbx),%rax
     eb3:	48 8b 4b 08          	mov    0x8(%rbx),%rcx
     eb7:	48 29 c1             	sub    %rax,%rcx
     eba:	48 c1 f9 04          	sar    $0x4,%rcx
     ebe:	48 39 e9             	cmp    %rbp,%rcx
     ec1:	77 2d                	ja     ef0 <_Z14mergeIntervalsNSt3__16vectorI8IntervalNS_9allocatorIS1_EEEE+0xa0>
     ec3:	48 8d 3d b2 07 02 00 	lea    0x207b2(%rip),%rdi        # 2167c <g_dyn_entry_table+0x2dc>
     eca:	be da 05 00 00       	mov    $0x5da,%esi
     ecf:	48 8d 15 dc 07 02 00 	lea    0x207dc(%rip),%rdx        # 216b2 <g_dyn_entry_table+0x312>
     ed6:	48 8d 0d e0 07 02 00 	lea    0x207e0(%rip),%rcx        # 216bd <g_dyn_entry_table+0x31d>
     edd:	e8 fe 52 00 00       	callq  61e0 <__assert>
     ee2:	48 8b 03             	mov    (%rbx),%rax
     ee5:	48 8b 4b 08          	mov    0x8(%rbx),%rcx
     ee9:	48 29 c1             	sub    %rax,%rcx
     eec:	48 c1 f9 04          	sar    $0x4,%rcx
     ef0:	4e 8b 34 28          	mov    (%rax,%r13,1),%r14
     ef4:	48 39 e9             	cmp    %rbp,%rcx
     ef7:	77 22                	ja     f1b <_Z14mergeIntervalsNSt3__16vectorI8IntervalNS_9allocatorIS1_EEEE+0xcb>
     ef9:	48 8d 3d 7c 07 02 00 	lea    0x2077c(%rip),%rdi        # 2167c <g_dyn_entry_table+0x2dc>
     f00:	be da 05 00 00       	mov    $0x5da,%esi
     f05:	48 8d 15 a6 07 02 00 	lea    0x207a6(%rip),%rdx        # 216b2 <g_dyn_entry_table+0x312>
     f0c:	48 8d 0d aa 07 02 00 	lea    0x207aa(%rip),%rcx        # 216bd <g_dyn_entry_table+0x31d>
     f13:	e8 c8 52 00 00       	callq  61e0 <__assert>
     f18:	48 8b 03             	mov    (%rbx),%rax
     f1b:	4a 8b 54 28 08       	mov    0x8(%rax,%r13,1),%rdx
     f20:	48 8d 3d e5 04 02 00 	lea    0x204e5(%rip),%rdi        # 2140c <g_dyn_entry_table+0x6c>
     f27:	4c 89 f6             	mov    %r14,%rsi
     f2a:	31 c0                	xor    %eax,%eax
     f2c:	e8 cf fd ff ff       	callq  d00 <_Z11debugprintfPKcz>
     f31:	48 83 c5 01          	add    $0x1,%rbp
     f35:	49 83 c5 10          	add    $0x10,%r13
     f39:	49 39 ec             	cmp    %rbp,%r12
     f3c:	0f 85 6e ff ff ff    	jne    eb0 <_Z14mergeIntervalsNSt3__16vectorI8IntervalNS_9allocatorIS1_EEEE+0x60>
     f42:	31 ed                	xor    %ebp,%ebp
     f44:	48 8b 04 24          	mov    (%rsp),%rax
     f48:	83 f8 02             	cmp    $0x2,%eax
     f4b:	0f 8c a0 03 00 00    	jl     12f1 <_Z14mergeIntervalsNSt3__16vectorI8IntervalNS_9allocatorIS1_EEEE+0x4a1>
     f51:	89 c0                	mov    %eax,%eax
     f53:	48 89 44 24 10       	mov    %rax,0x10(%rsp)
     f58:	31 ed                	xor    %ebp,%ebp
     f5a:	41 be 01 00 00 00    	mov    $0x1,%r14d
     f60:	41 bc 10 00 00 00    	mov    $0x10,%r12d
     f66:	66 2e 0f 1f 84 00 00 	nopw   %cs:0x0(%rax,%rax,1)
     f6d:	00 00 00 
     f70:	89 6c 24 0c          	mov    %ebp,0xc(%rsp)
     f74:	48 63 f5             	movslq %ebp,%rsi
     f77:	48 8b 03             	mov    (%rbx),%rax
     f7a:	48 8b 4b 08          	mov    0x8(%rbx),%rcx
     f7e:	48 89 ca             	mov    %rcx,%rdx
     f81:	48 29 c2             	sub    %rax,%rdx
     f84:	48 c1 fa 04          	sar    $0x4,%rdx
     f88:	48 39 f2             	cmp    %rsi,%rdx
     f8b:	48 89 34 24          	mov    %rsi,(%rsp)
     f8f:	77 34                	ja     fc5 <_Z14mergeIntervalsNSt3__16vectorI8IntervalNS_9allocatorIS1_EEEE+0x175>
     f91:	48 8d 3d e4 06 02 00 	lea    0x206e4(%rip),%rdi        # 2167c <g_dyn_entry_table+0x2dc>
     f98:	be da 05 00 00       	mov    $0x5da,%esi
     f9d:	48 8d 15 0e 07 02 00 	lea    0x2070e(%rip),%rdx        # 216b2 <g_dyn_entry_table+0x312>
     fa4:	48 8d 0d 12 07 02 00 	lea    0x20712(%rip),%rcx        # 216bd <g_dyn_entry_table+0x31d>
     fab:	e8 30 52 00 00       	callq  61e0 <__assert>
     fb0:	48 8b 34 24          	mov    (%rsp),%rsi
     fb4:	48 8b 03             	mov    (%rbx),%rax
     fb7:	48 8b 4b 08          	mov    0x8(%rbx),%rcx
     fbb:	48 89 ca             	mov    %rcx,%rdx
     fbe:	48 29 c2             	sub    %rax,%rdx
     fc1:	48 c1 fa 04          	sar    $0x4,%rdx
     fc5:	49 89 f5             	mov    %rsi,%r13
     fc8:	49 c1 e5 04          	shl    $0x4,%r13
     fcc:	4a 8b 6c 28 08       	mov    0x8(%rax,%r13,1),%rbp
     fd1:	4c 39 f2             	cmp    %r14,%rdx
     fd4:	77 2a                	ja     1000 <_Z14mergeIntervalsNSt3__16vectorI8IntervalNS_9allocatorIS1_EEEE+0x1b0>
     fd6:	48 8d 3d 9f 06 02 00 	lea    0x2069f(%rip),%rdi        # 2167c <g_dyn_entry_table+0x2dc>
     fdd:	be da 05 00 00       	mov    $0x5da,%esi
     fe2:	48 8d 15 c9 06 02 00 	lea    0x206c9(%rip),%rdx        # 216b2 <g_dyn_entry_table+0x312>
     fe9:	48 8d 0d cd 06 02 00 	lea    0x206cd(%rip),%rcx        # 216bd <g_dyn_entry_table+0x31d>
     ff0:	e8 eb 51 00 00       	callq  61e0 <__assert>
     ff5:	48 8b 34 24          	mov    (%rsp),%rsi
     ff9:	48 8b 03             	mov    (%rbx),%rax
     ffc:	48 8b 4b 08          	mov    0x8(%rbx),%rcx
    1000:	48 89 ca             	mov    %rcx,%rdx
    1003:	48 29 c2             	sub    %rax,%rdx
    1006:	48 c1 fa 04          	sar    $0x4,%rdx
    100a:	4a 3b 2c 20          	cmp    (%rax,%r12,1),%rbp
    100e:	0f 83 7c 00 00 00    	jae    1090 <_Z14mergeIntervalsNSt3__16vectorI8IntervalNS_9allocatorIS1_EEEE+0x240>
    1014:	48 89 c5             	mov    %rax,%rbp
    1017:	4c 39 f2             	cmp    %r14,%rdx
    101a:	77 2d                	ja     1049 <_Z14mergeIntervalsNSt3__16vectorI8IntervalNS_9allocatorIS1_EEEE+0x1f9>
    101c:	48 8d 3d 59 06 02 00 	lea    0x20659(%rip),%rdi        # 2167c <g_dyn_entry_table+0x2dc>
    1023:	be da 05 00 00       	mov    $0x5da,%esi
    1028:	48 8d 15 83 06 02 00 	lea    0x20683(%rip),%rdx        # 216b2 <g_dyn_entry_table+0x312>
    102f:	48 8d 0d 87 06 02 00 	lea    0x20687(%rip),%rcx        # 216bd <g_dyn_entry_table+0x31d>
    1036:	e8 a5 51 00 00       	callq  61e0 <__assert>
    103b:	48 8b 34 24          	mov    (%rsp),%rsi
    103f:	48 8b 03             	mov    (%rbx),%rax
    1042:	48 8b 4b 08          	mov    0x8(%rbx),%rcx
    1046:	48 89 c5             	mov    %rax,%rbp
    1049:	48 29 c1             	sub    %rax,%rcx
    104c:	48 c1 f9 04          	sar    $0x4,%rcx
    1050:	48 39 f1             	cmp    %rsi,%rcx
    1053:	77 22                	ja     1077 <_Z14mergeIntervalsNSt3__16vectorI8IntervalNS_9allocatorIS1_EEEE+0x227>
    1055:	48 8d 3d 20 06 02 00 	lea    0x20620(%rip),%rdi        # 2167c <g_dyn_entry_table+0x2dc>
    105c:	be da 05 00 00       	mov    $0x5da,%esi
    1061:	48 8d 15 4a 06 02 00 	lea    0x2064a(%rip),%rdx        # 216b2 <g_dyn_entry_table+0x312>
    1068:	48 8d 0d 4e 06 02 00 	lea    0x2064e(%rip),%rcx        # 216bd <g_dyn_entry_table+0x31d>
    106f:	e8 6c 51 00 00       	callq  61e0 <__assert>
    1074:	48 8b 03             	mov    (%rbx),%rax
    1077:	42 0f 10 44 25 00    	movups 0x0(%rbp,%r12,1),%xmm0
    107d:	42 0f 11 04 28       	movups %xmm0,(%rax,%r13,1)
    1082:	8b 6c 24 0c          	mov    0xc(%rsp),%ebp
    1086:	83 c5 01             	add    $0x1,%ebp
    1089:	e9 50 02 00 00       	jmpq   12de <_Z14mergeIntervalsNSt3__16vectorI8IntervalNS_9allocatorIS1_EEEE+0x48e>
    108e:	66 90                	xchg   %ax,%ax
    1090:	48 39 f2             	cmp    %rsi,%rdx
    1093:	77 2a                	ja     10bf <_Z14mergeIntervalsNSt3__16vectorI8IntervalNS_9allocatorIS1_EEEE+0x26f>
    1095:	48 8d 3d e0 05 02 00 	lea    0x205e0(%rip),%rdi        # 2167c <g_dyn_entry_table+0x2dc>
    109c:	be da 05 00 00       	mov    $0x5da,%esi
    10a1:	48 8d 15 0a 06 02 00 	lea    0x2060a(%rip),%rdx        # 216b2 <g_dyn_entry_table+0x312>
    10a8:	48 8d 0d 0e 06 02 00 	lea    0x2060e(%rip),%rcx        # 216bd <g_dyn_entry_table+0x31d>
    10af:	e8 2c 51 00 00       	callq  61e0 <__assert>
    10b4:	48 8b 34 24          	mov    (%rsp),%rsi
    10b8:	48 8b 03             	mov    (%rbx),%rax
    10bb:	48 8b 4b 08          	mov    0x8(%rbx),%rcx
    10bf:	4a 8b 6c 28 08       	mov    0x8(%rax,%r13,1),%rbp
    10c4:	48 89 ca             	mov    %rcx,%rdx
    10c7:	48 29 c2             	sub    %rax,%rdx
    10ca:	48 c1 fa 04          	sar    $0x4,%rdx
    10ce:	4c 39 f2             	cmp    %r14,%rdx
    10d1:	77 2a                	ja     10fd <_Z14mergeIntervalsNSt3__16vectorI8IntervalNS_9allocatorIS1_EEEE+0x2ad>
    10d3:	48 8d 3d a2 05 02 00 	lea    0x205a2(%rip),%rdi        # 2167c <g_dyn_entry_table+0x2dc>
    10da:	be da 05 00 00       	mov    $0x5da,%esi
    10df:	48 8d 15 cc 05 02 00 	lea    0x205cc(%rip),%rdx        # 216b2 <g_dyn_entry_table+0x312>
    10e6:	48 8d 0d d0 05 02 00 	lea    0x205d0(%rip),%rcx        # 216bd <g_dyn_entry_table+0x31d>
    10ed:	e8 ee 50 00 00       	callq  61e0 <__assert>
    10f2:	48 8b 34 24          	mov    (%rsp),%rsi
    10f6:	48 8b 03             	mov    (%rbx),%rax
    10f9:	48 8b 4b 08          	mov    0x8(%rbx),%rcx
    10fd:	48 29 c1             	sub    %rax,%rcx
    1100:	48 c1 f9 04          	sar    $0x4,%rcx
    1104:	4a 3b 6c 20 08       	cmp    0x8(%rax,%r12,1),%rbp
    1109:	76 35                	jbe    1140 <_Z14mergeIntervalsNSt3__16vectorI8IntervalNS_9allocatorIS1_EEEE+0x2f0>
    110b:	48 39 f1             	cmp    %rsi,%rcx
    110e:	77 26                	ja     1136 <_Z14mergeIntervalsNSt3__16vectorI8IntervalNS_9allocatorIS1_EEEE+0x2e6>
    1110:	48 8d 3d 65 05 02 00 	lea    0x20565(%rip),%rdi        # 2167c <g_dyn_entry_table+0x2dc>
    1117:	be da 05 00 00       	mov    $0x5da,%esi
    111c:	48 8d 15 8f 05 02 00 	lea    0x2058f(%rip),%rdx        # 216b2 <g_dyn_entry_table+0x312>
    1123:	48 8d 0d 93 05 02 00 	lea    0x20593(%rip),%rcx        # 216bd <g_dyn_entry_table+0x31d>
    112a:	e8 b1 50 00 00       	callq  61e0 <__assert>
    112f:	48 8b 34 24          	mov    (%rsp),%rsi
    1133:	48 8b 03             	mov    (%rbx),%rax
    1136:	48 89 c1             	mov    %rax,%rcx
    1139:	4c 01 e9             	add    %r13,%rcx
    113c:	eb 33                	jmp    1171 <_Z14mergeIntervalsNSt3__16vectorI8IntervalNS_9allocatorIS1_EEEE+0x321>
    113e:	66 90                	xchg   %ax,%ax
    1140:	4c 39 f1             	cmp    %r14,%rcx
    1143:	77 26                	ja     116b <_Z14mergeIntervalsNSt3__16vectorI8IntervalNS_9allocatorIS1_EEEE+0x31b>
    1145:	48 8d 3d 30 05 02 00 	lea    0x20530(%rip),%rdi        # 2167c <g_dyn_entry_table+0x2dc>
    114c:	be da 05 00 00       	mov    $0x5da,%esi
    1151:	48 8d 15 5a 05 02 00 	lea    0x2055a(%rip),%rdx        # 216b2 <g_dyn_entry_table+0x312>
    1158:	48 8d 0d 5e 05 02 00 	lea    0x2055e(%rip),%rcx        # 216bd <g_dyn_entry_table+0x31d>
    115f:	e8 7c 50 00 00       	callq  61e0 <__assert>
    1164:	48 8b 34 24          	mov    (%rsp),%rsi
    1168:	48 8b 03             	mov    (%rbx),%rax
    116b:	48 89 c1             	mov    %rax,%rcx
    116e:	4c 01 e1             	add    %r12,%rcx
    1171:	48 8b 69 08          	mov    0x8(%rcx),%rbp
    1175:	48 8b 4b 08          	mov    0x8(%rbx),%rcx
    1179:	48 89 ca             	mov    %rcx,%rdx
    117c:	48 29 c2             	sub    %rax,%rdx
    117f:	48 c1 fa 04          	sar    $0x4,%rdx
    1183:	48 39 f2             	cmp    %rsi,%rdx
    1186:	77 2a                	ja     11b2 <_Z14mergeIntervalsNSt3__16vectorI8IntervalNS_9allocatorIS1_EEEE+0x362>
    1188:	48 8d 3d ed 04 02 00 	lea    0x204ed(%rip),%rdi        # 2167c <g_dyn_entry_table+0x2dc>
    118f:	be da 05 00 00       	mov    $0x5da,%esi
    1194:	48 8d 15 17 05 02 00 	lea    0x20517(%rip),%rdx        # 216b2 <g_dyn_entry_table+0x312>
    119b:	48 8d 0d 1b 05 02 00 	lea    0x2051b(%rip),%rcx        # 216bd <g_dyn_entry_table+0x31d>
    11a2:	e8 39 50 00 00       	callq  61e0 <__assert>
    11a7:	48 8b 34 24          	mov    (%rsp),%rsi
    11ab:	48 8b 03             	mov    (%rbx),%rax
    11ae:	48 8b 4b 08          	mov    0x8(%rbx),%rcx
    11b2:	4a 89 6c 28 08       	mov    %rbp,0x8(%rax,%r13,1)
    11b7:	48 89 ca             	mov    %rcx,%rdx
    11ba:	48 29 c2             	sub    %rax,%rdx
    11bd:	48 c1 fa 04          	sar    $0x4,%rdx
    11c1:	48 39 f2             	cmp    %rsi,%rdx
    11c4:	77 2a                	ja     11f0 <_Z14mergeIntervalsNSt3__16vectorI8IntervalNS_9allocatorIS1_EEEE+0x3a0>
    11c6:	48 8d 3d af 04 02 00 	lea    0x204af(%rip),%rdi        # 2167c <g_dyn_entry_table+0x2dc>
    11cd:	be da 05 00 00       	mov    $0x5da,%esi
    11d2:	48 8d 15 d9 04 02 00 	lea    0x204d9(%rip),%rdx        # 216b2 <g_dyn_entry_table+0x312>
    11d9:	48 8d 0d dd 04 02 00 	lea    0x204dd(%rip),%rcx        # 216bd <g_dyn_entry_table+0x31d>
    11e0:	e8 fb 4f 00 00       	callq  61e0 <__assert>
    11e5:	48 8b 34 24          	mov    (%rsp),%rsi
    11e9:	48 8b 03             	mov    (%rbx),%rax
    11ec:	48 8b 4b 08          	mov    0x8(%rbx),%rcx
    11f0:	4a 8b 2c 28          	mov    (%rax,%r13,1),%rbp
    11f4:	48 89 ca             	mov    %rcx,%rdx
    11f7:	48 29 c2             	sub    %rax,%rdx
    11fa:	48 c1 fa 04          	sar    $0x4,%rdx
    11fe:	4c 39 f2             	cmp    %r14,%rdx
    1201:	77 2a                	ja     122d <_Z14mergeIntervalsNSt3__16vectorI8IntervalNS_9allocatorIS1_EEEE+0x3dd>
    1203:	48 8d 3d 72 04 02 00 	lea    0x20472(%rip),%rdi        # 2167c <g_dyn_entry_table+0x2dc>
    120a:	be da 05 00 00       	mov    $0x5da,%esi
    120f:	48 8d 15 9c 04 02 00 	lea    0x2049c(%rip),%rdx        # 216b2 <g_dyn_entry_table+0x312>
    1216:	48 8d 0d a0 04 02 00 	lea    0x204a0(%rip),%rcx        # 216bd <g_dyn_entry_table+0x31d>
    121d:	e8 be 4f 00 00       	callq  61e0 <__assert>
    1222:	48 8b 34 24          	mov    (%rsp),%rsi
    1226:	48 8b 03             	mov    (%rbx),%rax
    1229:	48 8b 4b 08          	mov    0x8(%rbx),%rcx
    122d:	48 29 c1             	sub    %rax,%rcx
    1230:	48 c1 f9 04          	sar    $0x4,%rcx
    1234:	4a 3b 2c 20          	cmp    (%rax,%r12,1),%rbp
    1238:	73 36                	jae    1270 <_Z14mergeIntervalsNSt3__16vectorI8IntervalNS_9allocatorIS1_EEEE+0x420>
    123a:	48 39 f1             	cmp    %rsi,%rcx
    123d:	77 26                	ja     1265 <_Z14mergeIntervalsNSt3__16vectorI8IntervalNS_9allocatorIS1_EEEE+0x415>
    123f:	48 8d 3d 36 04 02 00 	lea    0x20436(%rip),%rdi        # 2167c <g_dyn_entry_table+0x2dc>
    1246:	be da 05 00 00       	mov    $0x5da,%esi
    124b:	48 8d 15 60 04 02 00 	lea    0x20460(%rip),%rdx        # 216b2 <g_dyn_entry_table+0x312>
    1252:	48 8d 0d 64 04 02 00 	lea    0x20464(%rip),%rcx        # 216bd <g_dyn_entry_table+0x31d>
    1259:	e8 82 4f 00 00       	callq  61e0 <__assert>
    125e:	48 8b 34 24          	mov    (%rsp),%rsi
    1262:	48 8b 03             	mov    (%rbx),%rax
    1265:	48 89 c1             	mov    %rax,%rcx
    1268:	4c 01 e9             	add    %r13,%rcx
    126b:	eb 34                	jmp    12a1 <_Z14mergeIntervalsNSt3__16vectorI8IntervalNS_9allocatorIS1_EEEE+0x451>
    126d:	0f 1f 00             	nopl   (%rax)
    1270:	4c 39 f1             	cmp    %r14,%rcx
    1273:	77 26                	ja     129b <_Z14mergeIntervalsNSt3__16vectorI8IntervalNS_9allocatorIS1_EEEE+0x44b>
    1275:	48 8d 3d 00 04 02 00 	lea    0x20400(%rip),%rdi        # 2167c <g_dyn_entry_table+0x2dc>
    127c:	be da 05 00 00       	mov    $0x5da,%esi
    1281:	48 8d 15 2a 04 02 00 	lea    0x2042a(%rip),%rdx        # 216b2 <g_dyn_entry_table+0x312>
    1288:	48 8d 0d 2e 04 02 00 	lea    0x2042e(%rip),%rcx        # 216bd <g_dyn_entry_table+0x31d>
    128f:	e8 4c 4f 00 00       	callq  61e0 <__assert>
    1294:	48 8b 34 24          	mov    (%rsp),%rsi
    1298:	48 8b 03             	mov    (%rbx),%rax
    129b:	48 89 c1             	mov    %rax,%rcx
    129e:	4c 01 e1             	add    %r12,%rcx
    12a1:	48 8b 29             	mov    (%rcx),%rbp
    12a4:	48 8b 4b 08          	mov    0x8(%rbx),%rcx
    12a8:	48 29 c1             	sub    %rax,%rcx
    12ab:	48 c1 f9 04          	sar    $0x4,%rcx
    12af:	48 39 f1             	cmp    %rsi,%rcx
    12b2:	77 22                	ja     12d6 <_Z14mergeIntervalsNSt3__16vectorI8IntervalNS_9allocatorIS1_EEEE+0x486>
    12b4:	48 8d 3d c1 03 02 00 	lea    0x203c1(%rip),%rdi        # 2167c <g_dyn_entry_table+0x2dc>
    12bb:	be da 05 00 00       	mov    $0x5da,%esi
    12c0:	48 8d 15 eb 03 02 00 	lea    0x203eb(%rip),%rdx        # 216b2 <g_dyn_entry_table+0x312>
    12c7:	48 8d 0d ef 03 02 00 	lea    0x203ef(%rip),%rcx        # 216bd <g_dyn_entry_table+0x31d>
    12ce:	e8 0d 4f 00 00       	callq  61e0 <__assert>
    12d3:	48 8b 03             	mov    (%rbx),%rax
    12d6:	4a 89 2c 28          	mov    %rbp,(%rax,%r13,1)
    12da:	8b 6c 24 0c          	mov    0xc(%rsp),%ebp
    12de:	49 83 c6 01          	add    $0x1,%r14
    12e2:	49 83 c4 10          	add    $0x10,%r12
    12e6:	4c 39 74 24 10       	cmp    %r14,0x10(%rsp)
    12eb:	0f 85 7f fc ff ff    	jne    f70 <_Z14mergeIntervalsNSt3__16vectorI8IntervalNS_9allocatorIS1_EEEE+0x120>
    12f1:	89 2d 79 52 22 00    	mov    %ebp,0x225279(%rip)        # 226570 <finalhash+0x10>
    12f7:	48 83 c4 20          	add    $0x20,%rsp
    12fb:	5b                   	pop    %rbx
    12fc:	41 5c                	pop    %r12
    12fe:	41 5d                	pop    %r13
    1300:	41 5e                	pop    %r14
    1302:	5d                   	pop    %rbp
    1303:	c3                   	retq   
    1304:	66 2e 0f 1f 84 00 00 	nopw   %cs:0x0(%rax,%rax,1)
    130b:	00 00 00 
    130e:	66 90                	xchg   %ax,%ax

0000000000001310 <_Z12generateHashv>:
    1310:	55                   	push   %rbp
    1311:	41 56                	push   %r14
    1313:	41 55                	push   %r13
    1315:	41 54                	push   %r12
    1317:	53                   	push   %rbx
    1318:	48 81 ec e0 02 00 00 	sub    $0x2e0,%rsp
    131f:	64 48 8b 04 25 28 00 	mov    %fs:0x28,%rax
    1326:	00 00 
    1328:	48 89 84 24 d8 02 00 	mov    %rax,0x2d8(%rsp)
    132f:	00 
    1330:	41 b7 00             	mov    $0x0,%r15b
    1333:	0f 57 c0             	xorps  %xmm0,%xmm0
    1336:	0f 29 84 24 c0 02 00 	movaps %xmm0,0x2c0(%rsp)
    133d:	00 
    133e:	0f 29 84 24 b0 02 00 	movaps %xmm0,0x2b0(%rsp)
    1345:	00 
    1346:	0f 29 84 24 a0 02 00 	movaps %xmm0,0x2a0(%rsp)
    134d:	00 
    134e:	0f 29 84 24 90 02 00 	movaps %xmm0,0x290(%rsp)
    1355:	00 
    1356:	0f 29 84 24 80 02 00 	movaps %xmm0,0x280(%rsp)
    135d:	00 
    135e:	0f 29 84 24 70 02 00 	movaps %xmm0,0x270(%rsp)
    1365:	00 
    1366:	0f 29 84 24 60 02 00 	movaps %xmm0,0x260(%rsp)
    136d:	00 
    136e:	0f 29 84 24 50 02 00 	movaps %xmm0,0x250(%rsp)
    1375:	00 
    1376:	0f 29 84 24 40 02 00 	movaps %xmm0,0x240(%rsp)
    137d:	00 
    137e:	0f 29 84 24 30 02 00 	movaps %xmm0,0x230(%rsp)
    1385:	00 
    1386:	0f 28 05 43 03 02 00 	movaps 0x20343(%rip),%xmm0        # 216d0 <g_dyn_entry_table+0x330>
    138d:	0f 29 84 24 20 02 00 	movaps %xmm0,0x220(%rsp)
    1394:	00 
    1395:	48 8d 5c 24 10       	lea    0x10(%rsp),%rbx
    139a:	45 31 e4             	xor    %r12d,%r12d
    139d:	ba 00 02 00 00       	mov    $0x200,%edx
    13a2:	48 89 df             	mov    %rbx,%rdi
    13a5:	31 f6                	xor    %esi,%esi
    13a7:	e8 f4 82 00 00       	callq  96a0 <memset>
    13ac:	c7 44 24 10 04 00 01 	movl   $0x10004,0x10(%rsp)
    13b3:	00 
    13b4:	41 b7 0f             	mov    $0xf,%r15b
    13b7:	48 8d b4 24 10 02 00 	lea    0x210(%rsp),%rsi
    13be:	00 
    13bf:	48 89 df             	mov    %rbx,%rdi
    13c2:	e8 69 f6 01 00       	callq  20a30 <sgx_get_key>
    13c7:	48 8d 3d 4c 00 02 00 	lea    0x2004c(%rip),%rdi        # 2141a <g_dyn_entry_table+0x7a>
    13ce:	31 c0                	xor    %eax,%eax
    13d0:	e8 2b f9 ff ff       	callq  d00 <_Z11debugprintfPKcz>
    13d5:	0f b6 b4 24 10 02 00 	movzbl 0x210(%rsp),%esi
    13dc:	00 
    13dd:	48 8d 1d 41 00 02 00 	lea    0x20041(%rip),%rbx        # 21425 <g_dyn_entry_table+0x85>
    13e4:	48 89 df             	mov    %rbx,%rdi
    13e7:	31 c0                	xor    %eax,%eax
    13e9:	e8 12 f9 ff ff       	callq  d00 <_Z11debugprintfPKcz>
    13ee:	0f b6 b4 24 11 02 00 	movzbl 0x211(%rsp),%esi
    13f5:	00 
    13f6:	48 89 df             	mov    %rbx,%rdi
    13f9:	31 c0                	xor    %eax,%eax
    13fb:	e8 00 f9 ff ff       	callq  d00 <_Z11debugprintfPKcz>
    1400:	0f b6 b4 24 12 02 00 	movzbl 0x212(%rsp),%esi
    1407:	00 
    1408:	48 89 df             	mov    %rbx,%rdi
    140b:	31 c0                	xor    %eax,%eax
    140d:	e8 ee f8 ff ff       	callq  d00 <_Z11debugprintfPKcz>
    1412:	0f b6 b4 24 13 02 00 	movzbl 0x213(%rsp),%esi
    1419:	00 
    141a:	48 89 df             	mov    %rbx,%rdi
    141d:	31 c0                	xor    %eax,%eax
    141f:	e8 dc f8 ff ff       	callq  d00 <_Z11debugprintfPKcz>
    1424:	0f b6 b4 24 14 02 00 	movzbl 0x214(%rsp),%esi
    142b:	00 
    142c:	48 89 df             	mov    %rbx,%rdi
    142f:	31 c0                	xor    %eax,%eax
    1431:	e8 ca f8 ff ff       	callq  d00 <_Z11debugprintfPKcz>
    1436:	0f b6 b4 24 15 02 00 	movzbl 0x215(%rsp),%esi
    143d:	00 
    143e:	48 89 df             	mov    %rbx,%rdi
    1441:	31 c0                	xor    %eax,%eax
    1443:	e8 b8 f8 ff ff       	callq  d00 <_Z11debugprintfPKcz>
    1448:	0f b6 b4 24 16 02 00 	movzbl 0x216(%rsp),%esi
    144f:	00 
    1450:	48 89 df             	mov    %rbx,%rdi
    1453:	31 c0                	xor    %eax,%eax
    1455:	e8 a6 f8 ff ff       	callq  d00 <_Z11debugprintfPKcz>
    145a:	0f b6 b4 24 17 02 00 	movzbl 0x217(%rsp),%esi
    1461:	00 
    1462:	48 89 df             	mov    %rbx,%rdi
    1465:	31 c0                	xor    %eax,%eax
    1467:	e8 94 f8 ff ff       	callq  d00 <_Z11debugprintfPKcz>
    146c:	0f b6 b4 24 18 02 00 	movzbl 0x218(%rsp),%esi
    1473:	00 
    1474:	48 89 df             	mov    %rbx,%rdi
    1477:	31 c0                	xor    %eax,%eax
    1479:	e8 82 f8 ff ff       	callq  d00 <_Z11debugprintfPKcz>
    147e:	0f b6 b4 24 19 02 00 	movzbl 0x219(%rsp),%esi
    1485:	00 
    1486:	48 89 df             	mov    %rbx,%rdi
    1489:	31 c0                	xor    %eax,%eax
    148b:	e8 70 f8 ff ff       	callq  d00 <_Z11debugprintfPKcz>
    1490:	0f b6 b4 24 1a 02 00 	movzbl 0x21a(%rsp),%esi
    1497:	00 
    1498:	48 89 df             	mov    %rbx,%rdi
    149b:	31 c0                	xor    %eax,%eax
    149d:	e8 5e f8 ff ff       	callq  d00 <_Z11debugprintfPKcz>
    14a2:	0f b6 b4 24 1b 02 00 	movzbl 0x21b(%rsp),%esi
    14a9:	00 
    14aa:	48 89 df             	mov    %rbx,%rdi
    14ad:	31 c0                	xor    %eax,%eax
    14af:	e8 4c f8 ff ff       	callq  d00 <_Z11debugprintfPKcz>
    14b4:	0f b6 b4 24 1c 02 00 	movzbl 0x21c(%rsp),%esi
    14bb:	00 
    14bc:	48 89 df             	mov    %rbx,%rdi
    14bf:	31 c0                	xor    %eax,%eax
    14c1:	e8 3a f8 ff ff       	callq  d00 <_Z11debugprintfPKcz>
    14c6:	0f b6 b4 24 1d 02 00 	movzbl 0x21d(%rsp),%esi
    14cd:	00 
    14ce:	48 89 df             	mov    %rbx,%rdi
    14d1:	31 c0                	xor    %eax,%eax
    14d3:	e8 28 f8 ff ff       	callq  d00 <_Z11debugprintfPKcz>
    14d8:	0f b6 b4 24 1e 02 00 	movzbl 0x21e(%rsp),%esi
    14df:	00 
    14e0:	48 89 df             	mov    %rbx,%rdi
    14e3:	31 c0                	xor    %eax,%eax
    14e5:	e8 16 f8 ff ff       	callq  d00 <_Z11debugprintfPKcz>
    14ea:	0f b6 b4 24 1f 02 00 	movzbl 0x21f(%rsp),%esi
    14f1:	00 
    14f2:	48 89 df             	mov    %rbx,%rdi
    14f5:	31 c0                	xor    %eax,%eax
    14f7:	e8 04 f8 ff ff       	callq  d00 <_Z11debugprintfPKcz>
    14fc:	48 8d 3d 5d 01 02 00 	lea    0x2015d(%rip),%rdi        # 21660 <g_dyn_entry_table+0x2c0>
    1503:	31 c0                	xor    %eax,%eax
    1505:	e8 f6 f7 ff ff       	callq  d00 <_Z11debugprintfPKcz>
    150a:	83 3d 5f 50 22 00 00 	cmpl   $0x0,0x22505f(%rip)        # 226570 <finalhash+0x10>
    1511:	0f 84 87 03 00 00    	je     189e <_Z12generateHashv+0x58e>
    1517:	45 31 ed             	xor    %r13d,%r13d
    151a:	45 31 f6             	xor    %r14d,%r14d
    151d:	0f 1f 00             	nopl   (%rax)
    1520:	e8 da fa 01 00       	callq  20fff <get_enclave_base>
    1525:	48 89 c3             	mov    %rax,%rbx
    1528:	48 8b 0d 59 50 22 00 	mov    0x225059(%rip),%rcx        # 226588 <interval_set+0x8>
    152f:	48 8b 05 4a 50 22 00 	mov    0x22504a(%rip),%rax        # 226580 <interval_set>
    1536:	48 29 c1             	sub    %rax,%rcx
    1539:	48 c1 f9 04          	sar    $0x4,%rcx
    153d:	4c 39 f1             	cmp    %r14,%rcx
    1540:	77 26                	ja     1568 <_Z12generateHashv+0x258>
    1542:	48 8d 3d 33 01 02 00 	lea    0x20133(%rip),%rdi        # 2167c <g_dyn_entry_table+0x2dc>
    1549:	be da 05 00 00       	mov    $0x5da,%esi
    154e:	48 8d 15 5d 01 02 00 	lea    0x2015d(%rip),%rdx        # 216b2 <g_dyn_entry_table+0x312>
    1555:	48 8d 0d 61 01 02 00 	lea    0x20161(%rip),%rcx        # 216bd <g_dyn_entry_table+0x31d>
    155c:	e8 7f 4c 00 00       	callq  61e0 <__assert>
    1561:	48 8b 05 18 50 22 00 	mov    0x225018(%rip),%rax        # 226580 <interval_set>
    1568:	4a 03 1c 28          	add    (%rax,%r13,1),%rbx
    156c:	e8 8e fa 01 00       	callq  20fff <get_enclave_base>
    1571:	48 89 c5             	mov    %rax,%rbp
    1574:	48 8b 0d 0d 50 22 00 	mov    0x22500d(%rip),%rcx        # 226588 <interval_set+0x8>
    157b:	48 8b 05 fe 4f 22 00 	mov    0x224ffe(%rip),%rax        # 226580 <interval_set>
    1582:	48 29 c1             	sub    %rax,%rcx
    1585:	48 c1 f9 04          	sar    $0x4,%rcx
    1589:	4c 39 f1             	cmp    %r14,%rcx
    158c:	77 26                	ja     15b4 <_Z12generateHashv+0x2a4>
    158e:	48 8d 3d e7 00 02 00 	lea    0x200e7(%rip),%rdi        # 2167c <g_dyn_entry_table+0x2dc>
    1595:	be da 05 00 00       	mov    $0x5da,%esi
    159a:	48 8d 15 11 01 02 00 	lea    0x20111(%rip),%rdx        # 216b2 <g_dyn_entry_table+0x312>
    15a1:	48 8d 0d 15 01 02 00 	lea    0x20115(%rip),%rcx        # 216bd <g_dyn_entry_table+0x31d>
    15a8:	e8 33 4c 00 00       	callq  61e0 <__assert>
    15ad:	48 8b 05 cc 4f 22 00 	mov    0x224fcc(%rip),%rax        # 226580 <interval_set>
    15b4:	4a 03 6c 28 08       	add    0x8(%rax,%r13,1),%rbp
    15b9:	48 8d 3d 4c fe 01 00 	lea    0x1fe4c(%rip),%rdi        # 2140c <g_dyn_entry_table+0x6c>
    15c0:	48 89 de             	mov    %rbx,%rsi
    15c3:	48 89 ea             	mov    %rbp,%rdx
    15c6:	31 c0                	xor    %eax,%eax
    15c8:	e8 33 f7 ff ff       	callq  d00 <_Z11debugprintfPKcz>
    15cd:	e8 2d fa 01 00       	callq  20fff <get_enclave_base>
    15d2:	48 89 c3             	mov    %rax,%rbx
    15d5:	48 8b 0d ac 4f 22 00 	mov    0x224fac(%rip),%rcx        # 226588 <interval_set+0x8>
    15dc:	48 8b 05 9d 4f 22 00 	mov    0x224f9d(%rip),%rax        # 226580 <interval_set>
    15e3:	48 89 ca             	mov    %rcx,%rdx
    15e6:	48 29 c2             	sub    %rax,%rdx
    15e9:	48 c1 fa 04          	sar    $0x4,%rdx
    15ed:	4c 39 f2             	cmp    %r14,%rdx
    15f0:	77 37                	ja     1629 <_Z12generateHashv+0x319>
    15f2:	48 8d 3d 83 00 02 00 	lea    0x20083(%rip),%rdi        # 2167c <g_dyn_entry_table+0x2dc>
    15f9:	be da 05 00 00       	mov    $0x5da,%esi
    15fe:	48 8d 15 ad 00 02 00 	lea    0x200ad(%rip),%rdx        # 216b2 <g_dyn_entry_table+0x312>
    1605:	48 8d 0d b1 00 02 00 	lea    0x200b1(%rip),%rcx        # 216bd <g_dyn_entry_table+0x31d>
    160c:	e8 cf 4b 00 00       	callq  61e0 <__assert>
    1611:	48 8b 05 68 4f 22 00 	mov    0x224f68(%rip),%rax        # 226580 <interval_set>
    1618:	48 8b 0d 69 4f 22 00 	mov    0x224f69(%rip),%rcx        # 226588 <interval_set+0x8>
    161f:	48 89 ca             	mov    %rcx,%rdx
    1622:	48 29 c2             	sub    %rax,%rdx
    1625:	48 c1 fa 04          	sar    $0x4,%rdx
    1629:	4a 03 1c 28          	add    (%rax,%r13,1),%rbx
    162d:	48 89 5c 24 08       	mov    %rbx,0x8(%rsp)
    1632:	4d 89 ec             	mov    %r13,%r12
    1635:	41 83 e5 f0          	and    $0xfffffff0,%r13d
    1639:	4c 39 f2             	cmp    %r14,%rdx
    163c:	77 2d                	ja     166b <_Z12generateHashv+0x35b>
    163e:	48 8d 3d 37 00 02 00 	lea    0x20037(%rip),%rdi        # 2167c <g_dyn_entry_table+0x2dc>
    1645:	be da 05 00 00       	mov    $0x5da,%esi
    164a:	48 8d 15 61 00 02 00 	lea    0x20061(%rip),%rdx        # 216b2 <g_dyn_entry_table+0x312>
    1651:	48 8d 0d 65 00 02 00 	lea    0x20065(%rip),%rcx        # 216bd <g_dyn_entry_table+0x31d>
    1658:	e8 83 4b 00 00       	callq  61e0 <__assert>
    165d:	48 8b 05 1c 4f 22 00 	mov    0x224f1c(%rip),%rax        # 226580 <interval_set>
    1664:	48 8b 0d 1d 4f 22 00 	mov    0x224f1d(%rip),%rcx        # 226588 <interval_set+0x8>
    166b:	4a 8d 1c 2c          	lea    (%rsp,%r13,1),%rbx
    166f:	48 81 c3 30 02 00 00 	add    $0x230,%rbx
    1676:	4a 8b 6c 20 08       	mov    0x8(%rax,%r12,1),%rbp
    167b:	48 29 c1             	sub    %rax,%rcx
    167e:	48 c1 f9 04          	sar    $0x4,%rcx
    1682:	4c 39 f1             	cmp    %r14,%rcx
    1685:	77 26                	ja     16ad <_Z12generateHashv+0x39d>
    1687:	48 8d 3d ee ff 01 00 	lea    0x1ffee(%rip),%rdi        # 2167c <g_dyn_entry_table+0x2dc>
    168e:	be da 05 00 00       	mov    $0x5da,%esi
    1693:	48 8d 15 18 00 02 00 	lea    0x20018(%rip),%rdx        # 216b2 <g_dyn_entry_table+0x312>
    169a:	48 8d 0d 1c 00 02 00 	lea    0x2001c(%rip),%rcx        # 216bd <g_dyn_entry_table+0x31d>
    16a1:	e8 3a 4b 00 00       	callq  61e0 <__assert>
    16a6:	48 8b 05 d3 4e 22 00 	mov    0x224ed3(%rip),%rax        # 226580 <interval_set>
    16ad:	4a 2b 2c 20          	sub    (%rax,%r12,1),%rbp
    16b1:	48 8b 7c 24 08       	mov    0x8(%rsp),%rdi
    16b6:	48 89 de             	mov    %rbx,%rsi
    16b9:	48 8d 94 24 20 02 00 	lea    0x220(%rsp),%rdx
    16c0:	00 
    16c1:	48 89 e9             	mov    %rbp,%rcx
    16c4:	4c 8d 84 24 10 02 00 	lea    0x210(%rsp),%r8
    16cb:	00 
    16cc:	e8 ef 1a 00 00       	callq  31c0 <aesni_hash>
    16d1:	48 8d 3d 52 fd 01 00 	lea    0x1fd52(%rip),%rdi        # 2142a <g_dyn_entry_table+0x8a>
    16d8:	44 89 f6             	mov    %r14d,%esi
    16db:	31 c0                	xor    %eax,%eax
    16dd:	e8 1e f6 ff ff       	callq  d00 <_Z11debugprintfPKcz>
    16e2:	42 0f b6 b4 2c 30 02 	movzbl 0x230(%rsp,%r13,1),%esi
    16e9:	00 00 
    16eb:	48 8d 1d 33 fd 01 00 	lea    0x1fd33(%rip),%rbx        # 21425 <g_dyn_entry_table+0x85>
    16f2:	48 89 df             	mov    %rbx,%rdi
    16f5:	31 c0                	xor    %eax,%eax
    16f7:	e8 04 f6 ff ff       	callq  d00 <_Z11debugprintfPKcz>
    16fc:	4c 89 e8             	mov    %r13,%rax
    16ff:	48 83 c8 01          	or     $0x1,%rax
    1703:	0f b6 b4 04 30 02 00 	movzbl 0x230(%rsp,%rax,1),%esi
    170a:	00 
    170b:	48 89 df             	mov    %rbx,%rdi
    170e:	31 c0                	xor    %eax,%eax
    1710:	e8 eb f5 ff ff       	callq  d00 <_Z11debugprintfPKcz>
    1715:	4c 89 e8             	mov    %r13,%rax
    1718:	48 83 c8 02          	or     $0x2,%rax
    171c:	0f b6 b4 04 30 02 00 	movzbl 0x230(%rsp,%rax,1),%esi
    1723:	00 
    1724:	48 89 df             	mov    %rbx,%rdi
    1727:	31 c0                	xor    %eax,%eax
    1729:	e8 d2 f5 ff ff       	callq  d00 <_Z11debugprintfPKcz>
    172e:	4c 89 e8             	mov    %r13,%rax
    1731:	48 83 c8 03          	or     $0x3,%rax
    1735:	0f b6 b4 04 30 02 00 	movzbl 0x230(%rsp,%rax,1),%esi
    173c:	00 
    173d:	48 89 df             	mov    %rbx,%rdi
    1740:	31 c0                	xor    %eax,%eax
    1742:	e8 b9 f5 ff ff       	callq  d00 <_Z11debugprintfPKcz>
    1747:	4c 89 e8             	mov    %r13,%rax
    174a:	48 83 c8 04          	or     $0x4,%rax
    174e:	0f b6 b4 04 30 02 00 	movzbl 0x230(%rsp,%rax,1),%esi
    1755:	00 
    1756:	48 89 df             	mov    %rbx,%rdi
    1759:	31 c0                	xor    %eax,%eax
    175b:	e8 a0 f5 ff ff       	callq  d00 <_Z11debugprintfPKcz>
    1760:	4c 89 e8             	mov    %r13,%rax
    1763:	48 83 c8 05          	or     $0x5,%rax
    1767:	0f b6 b4 04 30 02 00 	movzbl 0x230(%rsp,%rax,1),%esi
    176e:	00 
    176f:	48 89 df             	mov    %rbx,%rdi
    1772:	31 c0                	xor    %eax,%eax
    1774:	e8 87 f5 ff ff       	callq  d00 <_Z11debugprintfPKcz>
    1779:	4c 89 e8             	mov    %r13,%rax
    177c:	48 83 c8 06          	or     $0x6,%rax
    1780:	0f b6 b4 04 30 02 00 	movzbl 0x230(%rsp,%rax,1),%esi
    1787:	00 
    1788:	48 89 df             	mov    %rbx,%rdi
    178b:	31 c0                	xor    %eax,%eax
    178d:	e8 6e f5 ff ff       	callq  d00 <_Z11debugprintfPKcz>
    1792:	4c 89 e8             	mov    %r13,%rax
    1795:	48 83 c8 07          	or     $0x7,%rax
    1799:	0f b6 b4 04 30 02 00 	movzbl 0x230(%rsp,%rax,1),%esi
    17a0:	00 
    17a1:	48 89 df             	mov    %rbx,%rdi
    17a4:	31 c0                	xor    %eax,%eax
    17a6:	e8 55 f5 ff ff       	callq  d00 <_Z11debugprintfPKcz>
    17ab:	4c 89 e8             	mov    %r13,%rax
    17ae:	48 83 c8 08          	or     $0x8,%rax
    17b2:	0f b6 b4 04 30 02 00 	movzbl 0x230(%rsp,%rax,1),%esi
    17b9:	00 
    17ba:	48 89 df             	mov    %rbx,%rdi
    17bd:	31 c0                	xor    %eax,%eax
    17bf:	e8 3c f5 ff ff       	callq  d00 <_Z11debugprintfPKcz>
    17c4:	4c 89 e8             	mov    %r13,%rax
    17c7:	48 83 c8 09          	or     $0x9,%rax
    17cb:	0f b6 b4 04 30 02 00 	movzbl 0x230(%rsp,%rax,1),%esi
    17d2:	00 
    17d3:	48 89 df             	mov    %rbx,%rdi
    17d6:	31 c0                	xor    %eax,%eax
    17d8:	e8 23 f5 ff ff       	callq  d00 <_Z11debugprintfPKcz>
    17dd:	4c 89 e8             	mov    %r13,%rax
    17e0:	48 83 c8 0a          	or     $0xa,%rax
    17e4:	0f b6 b4 04 30 02 00 	movzbl 0x230(%rsp,%rax,1),%esi
    17eb:	00 
    17ec:	48 89 df             	mov    %rbx,%rdi
    17ef:	31 c0                	xor    %eax,%eax
    17f1:	e8 0a f5 ff ff       	callq  d00 <_Z11debugprintfPKcz>
    17f6:	4c 89 e8             	mov    %r13,%rax
    17f9:	48 83 c8 0b          	or     $0xb,%rax
    17fd:	0f b6 b4 04 30 02 00 	movzbl 0x230(%rsp,%rax,1),%esi
    1804:	00 
    1805:	48 89 df             	mov    %rbx,%rdi
    1808:	31 c0                	xor    %eax,%eax
    180a:	e8 f1 f4 ff ff       	callq  d00 <_Z11debugprintfPKcz>
    180f:	4c 89 e8             	mov    %r13,%rax
    1812:	48 83 c8 0c          	or     $0xc,%rax
    1816:	0f b6 b4 04 30 02 00 	movzbl 0x230(%rsp,%rax,1),%esi
    181d:	00 
    181e:	48 89 df             	mov    %rbx,%rdi
    1821:	31 c0                	xor    %eax,%eax
    1823:	e8 d8 f4 ff ff       	callq  d00 <_Z11debugprintfPKcz>
    1828:	4c 89 e8             	mov    %r13,%rax
    182b:	48 83 c8 0d          	or     $0xd,%rax
    182f:	0f b6 b4 04 30 02 00 	movzbl 0x230(%rsp,%rax,1),%esi
    1836:	00 
    1837:	48 89 df             	mov    %rbx,%rdi
    183a:	31 c0                	xor    %eax,%eax
    183c:	e8 bf f4 ff ff       	callq  d00 <_Z11debugprintfPKcz>
    1841:	4c 89 e8             	mov    %r13,%rax
    1844:	48 83 c8 0e          	or     $0xe,%rax
    1848:	0f b6 b4 04 30 02 00 	movzbl 0x230(%rsp,%rax,1),%esi
    184f:	00 
    1850:	48 89 df             	mov    %rbx,%rdi
    1853:	31 c0                	xor    %eax,%eax
    1855:	e8 a6 f4 ff ff       	callq  d00 <_Z11debugprintfPKcz>
    185a:	49 83 cd 0f          	or     $0xf,%r13
    185e:	42 0f b6 b4 2c 30 02 	movzbl 0x230(%rsp,%r13,1),%esi
    1865:	00 00 
    1867:	4d 89 e5             	mov    %r12,%r13
    186a:	48 89 df             	mov    %rbx,%rdi
    186d:	31 c0                	xor    %eax,%eax
    186f:	e8 8c f4 ff ff       	callq  d00 <_Z11debugprintfPKcz>
    1874:	48 8d 3d e5 fd 01 00 	lea    0x1fde5(%rip),%rdi        # 21660 <g_dyn_entry_table+0x2c0>
    187b:	31 c0                	xor    %eax,%eax
    187d:	e8 7e f4 ff ff       	callq  d00 <_Z11debugprintfPKcz>
    1882:	49 83 c6 01          	add    $0x1,%r14
    1886:	44 8b 25 e3 4c 22 00 	mov    0x224ce3(%rip),%r12d        # 226570 <finalhash+0x10>
    188d:	49 83 c5 10          	add    $0x10,%r13
    1891:	4d 39 e6             	cmp    %r12,%r14
    1894:	0f 82 86 fc ff ff    	jb     1520 <_Z12generateHashv+0x210>
    189a:	41 c1 e4 04          	shl    $0x4,%r12d
    189e:	48 8d 35 bb 4c 22 00 	lea    0x224cbb(%rip),%rsi        # 226560 <finalhash>
    18a5:	48 8d bc 24 30 02 00 	lea    0x230(%rsp),%rdi
    18ac:	00 
    18ad:	48 8d 94 24 20 02 00 	lea    0x220(%rsp),%rdx
    18b4:	00 
    18b5:	4c 8d 84 24 10 02 00 	lea    0x210(%rsp),%r8
    18bc:	00 
    18bd:	4c 89 e1             	mov    %r12,%rcx
    18c0:	e8 fb 18 00 00       	callq  31c0 <aesni_hash>
    18c5:	48 8d 3d 72 fb 01 00 	lea    0x1fb72(%rip),%rdi        # 2143e <g_dyn_entry_table+0x9e>
    18cc:	31 c0                	xor    %eax,%eax
    18ce:	e8 2d f4 ff ff       	callq  d00 <_Z11debugprintfPKcz>
    18d3:	0f b6 35 86 4c 22 00 	movzbl 0x224c86(%rip),%esi        # 226560 <finalhash>
    18da:	48 8d 1d 44 fb 01 00 	lea    0x1fb44(%rip),%rbx        # 21425 <g_dyn_entry_table+0x85>
    18e1:	48 89 df             	mov    %rbx,%rdi
    18e4:	31 c0                	xor    %eax,%eax
    18e6:	e8 15 f4 ff ff       	callq  d00 <_Z11debugprintfPKcz>
    18eb:	0f b6 35 6f 4c 22 00 	movzbl 0x224c6f(%rip),%esi        # 226561 <finalhash+0x1>
    18f2:	48 89 df             	mov    %rbx,%rdi
    18f5:	31 c0                	xor    %eax,%eax
    18f7:	e8 04 f4 ff ff       	callq  d00 <_Z11debugprintfPKcz>
    18fc:	0f b6 35 5f 4c 22 00 	movzbl 0x224c5f(%rip),%esi        # 226562 <finalhash+0x2>
    1903:	48 89 df             	mov    %rbx,%rdi
    1906:	31 c0                	xor    %eax,%eax
    1908:	e8 f3 f3 ff ff       	callq  d00 <_Z11debugprintfPKcz>
    190d:	0f b6 35 4f 4c 22 00 	movzbl 0x224c4f(%rip),%esi        # 226563 <finalhash+0x3>
    1914:	48 89 df             	mov    %rbx,%rdi
    1917:	31 c0                	xor    %eax,%eax
    1919:	e8 e2 f3 ff ff       	callq  d00 <_Z11debugprintfPKcz>
    191e:	0f b6 35 3f 4c 22 00 	movzbl 0x224c3f(%rip),%esi        # 226564 <finalhash+0x4>
    1925:	48 89 df             	mov    %rbx,%rdi
    1928:	31 c0                	xor    %eax,%eax
    192a:	e8 d1 f3 ff ff       	callq  d00 <_Z11debugprintfPKcz>
    192f:	0f b6 35 2f 4c 22 00 	movzbl 0x224c2f(%rip),%esi        # 226565 <finalhash+0x5>
    1936:	48 89 df             	mov    %rbx,%rdi
    1939:	31 c0                	xor    %eax,%eax
    193b:	e8 c0 f3 ff ff       	callq  d00 <_Z11debugprintfPKcz>
    1940:	0f b6 35 1f 4c 22 00 	movzbl 0x224c1f(%rip),%esi        # 226566 <finalhash+0x6>
    1947:	48 89 df             	mov    %rbx,%rdi
    194a:	31 c0                	xor    %eax,%eax
    194c:	e8 af f3 ff ff       	callq  d00 <_Z11debugprintfPKcz>
    1951:	0f b6 35 0f 4c 22 00 	movzbl 0x224c0f(%rip),%esi        # 226567 <finalhash+0x7>
    1958:	48 89 df             	mov    %rbx,%rdi
    195b:	31 c0                	xor    %eax,%eax
    195d:	e8 9e f3 ff ff       	callq  d00 <_Z11debugprintfPKcz>
    1962:	0f b6 35 ff 4b 22 00 	movzbl 0x224bff(%rip),%esi        # 226568 <finalhash+0x8>
    1969:	48 89 df             	mov    %rbx,%rdi
    196c:	31 c0                	xor    %eax,%eax
    196e:	e8 8d f3 ff ff       	callq  d00 <_Z11debugprintfPKcz>
    1973:	0f b6 35 ef 4b 22 00 	movzbl 0x224bef(%rip),%esi        # 226569 <finalhash+0x9>
    197a:	48 89 df             	mov    %rbx,%rdi
    197d:	31 c0                	xor    %eax,%eax
    197f:	e8 7c f3 ff ff       	callq  d00 <_Z11debugprintfPKcz>
    1984:	0f b6 35 df 4b 22 00 	movzbl 0x224bdf(%rip),%esi        # 22656a <finalhash+0xa>
    198b:	48 89 df             	mov    %rbx,%rdi
    198e:	31 c0                	xor    %eax,%eax
    1990:	e8 6b f3 ff ff       	callq  d00 <_Z11debugprintfPKcz>
    1995:	0f b6 35 cf 4b 22 00 	movzbl 0x224bcf(%rip),%esi        # 22656b <finalhash+0xb>
    199c:	48 89 df             	mov    %rbx,%rdi
    199f:	31 c0                	xor    %eax,%eax
    19a1:	e8 5a f3 ff ff       	callq  d00 <_Z11debugprintfPKcz>
    19a6:	0f b6 35 bf 4b 22 00 	movzbl 0x224bbf(%rip),%esi        # 22656c <finalhash+0xc>
    19ad:	48 89 df             	mov    %rbx,%rdi
    19b0:	31 c0                	xor    %eax,%eax
    19b2:	e8 49 f3 ff ff       	callq  d00 <_Z11debugprintfPKcz>
    19b7:	0f b6 35 af 4b 22 00 	movzbl 0x224baf(%rip),%esi        # 22656d <finalhash+0xd>
    19be:	48 89 df             	mov    %rbx,%rdi
    19c1:	31 c0                	xor    %eax,%eax
    19c3:	e8 38 f3 ff ff       	callq  d00 <_Z11debugprintfPKcz>
    19c8:	0f b6 35 9f 4b 22 00 	movzbl 0x224b9f(%rip),%esi        # 22656e <finalhash+0xe>
    19cf:	48 89 df             	mov    %rbx,%rdi
    19d2:	31 c0                	xor    %eax,%eax
    19d4:	e8 27 f3 ff ff       	callq  d00 <_Z11debugprintfPKcz>
    19d9:	0f b6 35 8f 4b 22 00 	movzbl 0x224b8f(%rip),%esi        # 22656f <finalhash+0xf>
    19e0:	48 89 df             	mov    %rbx,%rdi
    19e3:	31 c0                	xor    %eax,%eax
    19e5:	e8 16 f3 ff ff       	callq  d00 <_Z11debugprintfPKcz>
    19ea:	48 8d 3d 6f fc 01 00 	lea    0x1fc6f(%rip),%rdi        # 21660 <g_dyn_entry_table+0x2c0>
    19f1:	31 c0                	xor    %eax,%eax
    19f3:	e8 08 f3 ff ff       	callq  d00 <_Z11debugprintfPKcz>
    19f8:	64 48 8b 04 25 28 00 	mov    %fs:0x28,%rax
    19ff:	00 00 
    1a01:	48 3b 84 24 d8 02 00 	cmp    0x2d8(%rsp),%rax
    1a08:	00 
    1a09:	75 10                	jne    1a1b <_Z12generateHashv+0x70b>
    1a0b:	48 81 c4 e0 02 00 00 	add    $0x2e0,%rsp
    1a12:	5b                   	pop    %rbx
    1a13:	41 5c                	pop    %r12
    1a15:	41 5d                	pop    %r13
    1a17:	41 5e                	pop    %r14
    1a19:	5d                   	pop    %rbp
    1a1a:	c3                   	retq   
    1a1b:	e8 b0 47 00 00       	callq  61d0 <__stack_chk_fail>

0000000000001a20 <_Z22check_hash_measurementv>:
    1a20:	55                   	push   %rbp
    1a21:	41 56                	push   %r14
    1a23:	41 55                	push   %r13
    1a25:	41 54                	push   %r12
    1a27:	53                   	push   %rbx
    1a28:	48 81 ec f0 02 00 00 	sub    $0x2f0,%rsp
    1a2f:	64 48 8b 04 25 28 00 	mov    %fs:0x28,%rax
    1a36:	00 00 
    1a38:	48 89 84 24 e8 02 00 	mov    %rax,0x2e8(%rsp)
    1a3f:	00 
    1a40:	0f 57 c0             	xorps  %xmm0,%xmm0
    1a43:	0f 29 84 24 d0 02 00 	movaps %xmm0,0x2d0(%rsp)
    1a4a:	00 
    1a4b:	0f 29 84 24 c0 02 00 	movaps %xmm0,0x2c0(%rsp)
    1a52:	00 
    1a53:	0f 29 84 24 b0 02 00 	movaps %xmm0,0x2b0(%rsp)
    1a5a:	00 
    1a5b:	0f 29 84 24 a0 02 00 	movaps %xmm0,0x2a0(%rsp)
    1a62:	00 
    1a63:	0f 29 84 24 90 02 00 	movaps %xmm0,0x290(%rsp)
    1a6a:	00 
    1a6b:	0f 29 84 24 80 02 00 	movaps %xmm0,0x280(%rsp)
    1a72:	00 
    1a73:	0f 29 84 24 70 02 00 	movaps %xmm0,0x270(%rsp)
    1a7a:	00 
    1a7b:	0f 29 84 24 60 02 00 	movaps %xmm0,0x260(%rsp)
    1a82:	00 
    1a83:	0f 29 84 24 50 02 00 	movaps %xmm0,0x250(%rsp)
    1a8a:	00 
    1a8b:	0f 29 84 24 40 02 00 	movaps %xmm0,0x240(%rsp)
    1a92:	00 
    1a93:	0f 28 0d 36 fc 01 00 	movaps 0x1fc36(%rip),%xmm1        # 216d0 <g_dyn_entry_table+0x330>
    1a9a:	0f 29 8c 24 30 02 00 	movaps %xmm1,0x230(%rsp)
    1aa1:	00 
    1aa2:	0f 29 84 24 20 02 00 	movaps %xmm0,0x220(%rsp)
    1aa9:	00 
    1aaa:	41 b7 0f             	mov    $0xf,%r15b
    1aad:	48 8d 5c 24 10       	lea    0x10(%rsp),%rbx
    1ab2:	45 31 e4             	xor    %r12d,%r12d
    1ab5:	ba 00 02 00 00       	mov    $0x200,%edx
    1aba:	48 89 df             	mov    %rbx,%rdi
    1abd:	31 f6                	xor    %esi,%esi
    1abf:	e8 dc 7b 00 00       	callq  96a0 <memset>
    1ac4:	c7 44 24 10 04 00 01 	movl   $0x10004,0x10(%rsp)
    1acb:	00 
    1acc:	48 8d b4 24 10 02 00 	lea    0x210(%rsp),%rsi
    1ad3:	00 
    1ad4:	48 89 df             	mov    %rbx,%rdi
    1ad7:	e8 54 ef 01 00       	callq  20a30 <sgx_get_key>
    1adc:	48 8d 3d 37 f9 01 00 	lea    0x1f937(%rip),%rdi        # 2141a <g_dyn_entry_table+0x7a>
    1ae3:	31 c0                	xor    %eax,%eax
    1ae5:	e8 16 f2 ff ff       	callq  d00 <_Z11debugprintfPKcz>
    1aea:	0f b6 b4 24 10 02 00 	movzbl 0x210(%rsp),%esi
    1af1:	00 
    1af2:	48 8d 1d 2c f9 01 00 	lea    0x1f92c(%rip),%rbx        # 21425 <g_dyn_entry_table+0x85>
    1af9:	48 89 df             	mov    %rbx,%rdi
    1afc:	31 c0                	xor    %eax,%eax
    1afe:	e8 fd f1 ff ff       	callq  d00 <_Z11debugprintfPKcz>
    1b03:	0f b6 b4 24 11 02 00 	movzbl 0x211(%rsp),%esi
    1b0a:	00 
    1b0b:	48 89 df             	mov    %rbx,%rdi
    1b0e:	31 c0                	xor    %eax,%eax
    1b10:	e8 eb f1 ff ff       	callq  d00 <_Z11debugprintfPKcz>
    1b15:	0f b6 b4 24 12 02 00 	movzbl 0x212(%rsp),%esi
    1b1c:	00 
    1b1d:	48 89 df             	mov    %rbx,%rdi
    1b20:	31 c0                	xor    %eax,%eax
    1b22:	e8 d9 f1 ff ff       	callq  d00 <_Z11debugprintfPKcz>
    1b27:	0f b6 b4 24 13 02 00 	movzbl 0x213(%rsp),%esi
    1b2e:	00 
    1b2f:	48 89 df             	mov    %rbx,%rdi
    1b32:	31 c0                	xor    %eax,%eax
    1b34:	e8 c7 f1 ff ff       	callq  d00 <_Z11debugprintfPKcz>
    1b39:	0f b6 b4 24 14 02 00 	movzbl 0x214(%rsp),%esi
    1b40:	00 
    1b41:	48 89 df             	mov    %rbx,%rdi
    1b44:	31 c0                	xor    %eax,%eax
    1b46:	e8 b5 f1 ff ff       	callq  d00 <_Z11debugprintfPKcz>
    1b4b:	0f b6 b4 24 15 02 00 	movzbl 0x215(%rsp),%esi
    1b52:	00 
    1b53:	48 89 df             	mov    %rbx,%rdi
    1b56:	31 c0                	xor    %eax,%eax
    1b58:	e8 a3 f1 ff ff       	callq  d00 <_Z11debugprintfPKcz>
    1b5d:	0f b6 b4 24 16 02 00 	movzbl 0x216(%rsp),%esi
    1b64:	00 
    1b65:	48 89 df             	mov    %rbx,%rdi
    1b68:	31 c0                	xor    %eax,%eax
    1b6a:	e8 91 f1 ff ff       	callq  d00 <_Z11debugprintfPKcz>
    1b6f:	0f b6 b4 24 17 02 00 	movzbl 0x217(%rsp),%esi
    1b76:	00 
    1b77:	48 89 df             	mov    %rbx,%rdi
    1b7a:	31 c0                	xor    %eax,%eax
    1b7c:	e8 7f f1 ff ff       	callq  d00 <_Z11debugprintfPKcz>
    1b81:	0f b6 b4 24 18 02 00 	movzbl 0x218(%rsp),%esi
    1b88:	00 
    1b89:	48 89 df             	mov    %rbx,%rdi
    1b8c:	31 c0                	xor    %eax,%eax
    1b8e:	e8 6d f1 ff ff       	callq  d00 <_Z11debugprintfPKcz>
    1b93:	0f b6 b4 24 19 02 00 	movzbl 0x219(%rsp),%esi
    1b9a:	00 
    1b9b:	48 89 df             	mov    %rbx,%rdi
    1b9e:	31 c0                	xor    %eax,%eax
    1ba0:	e8 5b f1 ff ff       	callq  d00 <_Z11debugprintfPKcz>
    1ba5:	0f b6 b4 24 1a 02 00 	movzbl 0x21a(%rsp),%esi
    1bac:	00 
    1bad:	48 89 df             	mov    %rbx,%rdi
    1bb0:	31 c0                	xor    %eax,%eax
    1bb2:	e8 49 f1 ff ff       	callq  d00 <_Z11debugprintfPKcz>
    1bb7:	0f b6 b4 24 1b 02 00 	movzbl 0x21b(%rsp),%esi
    1bbe:	00 
    1bbf:	48 89 df             	mov    %rbx,%rdi
    1bc2:	31 c0                	xor    %eax,%eax
    1bc4:	e8 37 f1 ff ff       	callq  d00 <_Z11debugprintfPKcz>
    1bc9:	0f b6 b4 24 1c 02 00 	movzbl 0x21c(%rsp),%esi
    1bd0:	00 
    1bd1:	48 89 df             	mov    %rbx,%rdi
    1bd4:	31 c0                	xor    %eax,%eax
    1bd6:	e8 25 f1 ff ff       	callq  d00 <_Z11debugprintfPKcz>
    1bdb:	0f b6 b4 24 1d 02 00 	movzbl 0x21d(%rsp),%esi
    1be2:	00 
    1be3:	48 89 df             	mov    %rbx,%rdi
    1be6:	31 c0                	xor    %eax,%eax
    1be8:	e8 13 f1 ff ff       	callq  d00 <_Z11debugprintfPKcz>
    1bed:	0f b6 b4 24 1e 02 00 	movzbl 0x21e(%rsp),%esi
    1bf4:	00 
    1bf5:	48 89 df             	mov    %rbx,%rdi
    1bf8:	31 c0                	xor    %eax,%eax
    1bfa:	e8 01 f1 ff ff       	callq  d00 <_Z11debugprintfPKcz>
    1bff:	0f b6 b4 24 1f 02 00 	movzbl 0x21f(%rsp),%esi
    1c06:	00 
    1c07:	48 89 df             	mov    %rbx,%rdi
    1c0a:	31 c0                	xor    %eax,%eax
    1c0c:	e8 ef f0 ff ff       	callq  d00 <_Z11debugprintfPKcz>
    1c11:	48 8d 3d 48 fa 01 00 	lea    0x1fa48(%rip),%rdi        # 21660 <g_dyn_entry_table+0x2c0>
    1c18:	31 c0                	xor    %eax,%eax
    1c1a:	e8 e1 f0 ff ff       	callq  d00 <_Z11debugprintfPKcz>
    1c1f:	83 3d 4a 49 22 00 00 	cmpl   $0x0,0x22494a(%rip)        # 226570 <finalhash+0x10>
    1c26:	0f 84 92 03 00 00    	je     1fbe <_Z22check_hash_measurementv+0x59e>
    1c2c:	45 31 ed             	xor    %r13d,%r13d
    1c2f:	45 31 f6             	xor    %r14d,%r14d
    1c32:	66 2e 0f 1f 84 00 00 	nopw   %cs:0x0(%rax,%rax,1)
    1c39:	00 00 00 
    1c3c:	0f 1f 40 00          	nopl   0x0(%rax)
    1c40:	e8 ba f3 01 00       	callq  20fff <get_enclave_base>
    1c45:	48 89 c3             	mov    %rax,%rbx
    1c48:	48 8b 0d 39 49 22 00 	mov    0x224939(%rip),%rcx        # 226588 <interval_set+0x8>
    1c4f:	48 8b 05 2a 49 22 00 	mov    0x22492a(%rip),%rax        # 226580 <interval_set>
    1c56:	48 29 c1             	sub    %rax,%rcx
    1c59:	48 c1 f9 04          	sar    $0x4,%rcx
    1c5d:	4c 39 f1             	cmp    %r14,%rcx
    1c60:	77 26                	ja     1c88 <_Z22check_hash_measurementv+0x268>
    1c62:	48 8d 3d 13 fa 01 00 	lea    0x1fa13(%rip),%rdi        # 2167c <g_dyn_entry_table+0x2dc>
    1c69:	be da 05 00 00       	mov    $0x5da,%esi
    1c6e:	48 8d 15 3d fa 01 00 	lea    0x1fa3d(%rip),%rdx        # 216b2 <g_dyn_entry_table+0x312>
    1c75:	48 8d 0d 41 fa 01 00 	lea    0x1fa41(%rip),%rcx        # 216bd <g_dyn_entry_table+0x31d>
    1c7c:	e8 5f 45 00 00       	callq  61e0 <__assert>
    1c81:	48 8b 05 f8 48 22 00 	mov    0x2248f8(%rip),%rax        # 226580 <interval_set>
    1c88:	4a 03 1c 28          	add    (%rax,%r13,1),%rbx
    1c8c:	e8 6e f3 01 00       	callq  20fff <get_enclave_base>
    1c91:	48 89 c5             	mov    %rax,%rbp
    1c94:	48 8b 0d ed 48 22 00 	mov    0x2248ed(%rip),%rcx        # 226588 <interval_set+0x8>
    1c9b:	48 8b 05 de 48 22 00 	mov    0x2248de(%rip),%rax        # 226580 <interval_set>
    1ca2:	48 29 c1             	sub    %rax,%rcx
    1ca5:	48 c1 f9 04          	sar    $0x4,%rcx
    1ca9:	4c 39 f1             	cmp    %r14,%rcx
    1cac:	77 26                	ja     1cd4 <_Z22check_hash_measurementv+0x2b4>
    1cae:	48 8d 3d c7 f9 01 00 	lea    0x1f9c7(%rip),%rdi        # 2167c <g_dyn_entry_table+0x2dc>
    1cb5:	be da 05 00 00       	mov    $0x5da,%esi
    1cba:	48 8d 15 f1 f9 01 00 	lea    0x1f9f1(%rip),%rdx        # 216b2 <g_dyn_entry_table+0x312>
    1cc1:	48 8d 0d f5 f9 01 00 	lea    0x1f9f5(%rip),%rcx        # 216bd <g_dyn_entry_table+0x31d>
    1cc8:	e8 13 45 00 00       	callq  61e0 <__assert>
    1ccd:	48 8b 05 ac 48 22 00 	mov    0x2248ac(%rip),%rax        # 226580 <interval_set>
    1cd4:	4a 03 6c 28 08       	add    0x8(%rax,%r13,1),%rbp
    1cd9:	48 8d 3d 2c f7 01 00 	lea    0x1f72c(%rip),%rdi        # 2140c <g_dyn_entry_table+0x6c>
    1ce0:	48 89 de             	mov    %rbx,%rsi
    1ce3:	48 89 ea             	mov    %rbp,%rdx
    1ce6:	31 c0                	xor    %eax,%eax
    1ce8:	e8 13 f0 ff ff       	callq  d00 <_Z11debugprintfPKcz>
    1ced:	e8 0d f3 01 00       	callq  20fff <get_enclave_base>
    1cf2:	48 89 c3             	mov    %rax,%rbx
    1cf5:	48 8b 0d 8c 48 22 00 	mov    0x22488c(%rip),%rcx        # 226588 <interval_set+0x8>
    1cfc:	48 8b 05 7d 48 22 00 	mov    0x22487d(%rip),%rax        # 226580 <interval_set>
    1d03:	48 89 ca             	mov    %rcx,%rdx
    1d06:	48 29 c2             	sub    %rax,%rdx
    1d09:	48 c1 fa 04          	sar    $0x4,%rdx
    1d0d:	4c 39 f2             	cmp    %r14,%rdx
    1d10:	77 37                	ja     1d49 <_Z22check_hash_measurementv+0x329>
    1d12:	48 8d 3d 63 f9 01 00 	lea    0x1f963(%rip),%rdi        # 2167c <g_dyn_entry_table+0x2dc>
    1d19:	be da 05 00 00       	mov    $0x5da,%esi
    1d1e:	48 8d 15 8d f9 01 00 	lea    0x1f98d(%rip),%rdx        # 216b2 <g_dyn_entry_table+0x312>
    1d25:	48 8d 0d 91 f9 01 00 	lea    0x1f991(%rip),%rcx        # 216bd <g_dyn_entry_table+0x31d>
    1d2c:	e8 af 44 00 00       	callq  61e0 <__assert>
    1d31:	48 8b 05 48 48 22 00 	mov    0x224848(%rip),%rax        # 226580 <interval_set>
    1d38:	48 8b 0d 49 48 22 00 	mov    0x224849(%rip),%rcx        # 226588 <interval_set+0x8>
    1d3f:	48 89 ca             	mov    %rcx,%rdx
    1d42:	48 29 c2             	sub    %rax,%rdx
    1d45:	48 c1 fa 04          	sar    $0x4,%rdx
    1d49:	4a 03 1c 28          	add    (%rax,%r13,1),%rbx
    1d4d:	48 89 5c 24 08       	mov    %rbx,0x8(%rsp)
    1d52:	4d 89 ec             	mov    %r13,%r12
    1d55:	41 83 e5 f0          	and    $0xfffffff0,%r13d
    1d59:	4c 39 f2             	cmp    %r14,%rdx
    1d5c:	77 2d                	ja     1d8b <_Z22check_hash_measurementv+0x36b>
    1d5e:	48 8d 3d 17 f9 01 00 	lea    0x1f917(%rip),%rdi        # 2167c <g_dyn_entry_table+0x2dc>
    1d65:	be da 05 00 00       	mov    $0x5da,%esi
    1d6a:	48 8d 15 41 f9 01 00 	lea    0x1f941(%rip),%rdx        # 216b2 <g_dyn_entry_table+0x312>
    1d71:	48 8d 0d 45 f9 01 00 	lea    0x1f945(%rip),%rcx        # 216bd <g_dyn_entry_table+0x31d>
    1d78:	e8 63 44 00 00       	callq  61e0 <__assert>
    1d7d:	48 8b 05 fc 47 22 00 	mov    0x2247fc(%rip),%rax        # 226580 <interval_set>
    1d84:	48 8b 0d fd 47 22 00 	mov    0x2247fd(%rip),%rcx        # 226588 <interval_set+0x8>
    1d8b:	4a 8d 1c 2c          	lea    (%rsp,%r13,1),%rbx
    1d8f:	48 81 c3 40 02 00 00 	add    $0x240,%rbx
    1d96:	4a 8b 6c 20 08       	mov    0x8(%rax,%r12,1),%rbp
    1d9b:	48 29 c1             	sub    %rax,%rcx
    1d9e:	48 c1 f9 04          	sar    $0x4,%rcx
    1da2:	4c 39 f1             	cmp    %r14,%rcx
    1da5:	77 26                	ja     1dcd <_Z22check_hash_measurementv+0x3ad>
    1da7:	48 8d 3d ce f8 01 00 	lea    0x1f8ce(%rip),%rdi        # 2167c <g_dyn_entry_table+0x2dc>
    1dae:	be da 05 00 00       	mov    $0x5da,%esi
    1db3:	48 8d 15 f8 f8 01 00 	lea    0x1f8f8(%rip),%rdx        # 216b2 <g_dyn_entry_table+0x312>
    1dba:	48 8d 0d fc f8 01 00 	lea    0x1f8fc(%rip),%rcx        # 216bd <g_dyn_entry_table+0x31d>
    1dc1:	e8 1a 44 00 00       	callq  61e0 <__assert>
    1dc6:	48 8b 05 b3 47 22 00 	mov    0x2247b3(%rip),%rax        # 226580 <interval_set>
    1dcd:	4a 2b 2c 20          	sub    (%rax,%r12,1),%rbp
    1dd1:	48 8b 7c 24 08       	mov    0x8(%rsp),%rdi
    1dd6:	48 89 de             	mov    %rbx,%rsi
    1dd9:	48 8d 94 24 30 02 00 	lea    0x230(%rsp),%rdx
    1de0:	00 
    1de1:	48 89 e9             	mov    %rbp,%rcx
    1de4:	4c 8d 84 24 10 02 00 	lea    0x210(%rsp),%r8
    1deb:	00 
    1dec:	e8 cf 13 00 00       	callq  31c0 <aesni_hash>
    1df1:	48 8d 3d 32 f6 01 00 	lea    0x1f632(%rip),%rdi        # 2142a <g_dyn_entry_table+0x8a>
    1df8:	44 89 f6             	mov    %r14d,%esi
    1dfb:	31 c0                	xor    %eax,%eax
    1dfd:	e8 fe ee ff ff       	callq  d00 <_Z11debugprintfPKcz>
    1e02:	42 0f b6 b4 2c 40 02 	movzbl 0x240(%rsp,%r13,1),%esi
    1e09:	00 00 
    1e0b:	48 8d 1d 13 f6 01 00 	lea    0x1f613(%rip),%rbx        # 21425 <g_dyn_entry_table+0x85>
    1e12:	48 89 df             	mov    %rbx,%rdi
    1e15:	31 c0                	xor    %eax,%eax
    1e17:	e8 e4 ee ff ff       	callq  d00 <_Z11debugprintfPKcz>
    1e1c:	4c 89 e8             	mov    %r13,%rax
    1e1f:	48 83 c8 01          	or     $0x1,%rax
    1e23:	0f b6 b4 04 40 02 00 	movzbl 0x240(%rsp,%rax,1),%esi
    1e2a:	00 
    1e2b:	48 89 df             	mov    %rbx,%rdi
    1e2e:	31 c0                	xor    %eax,%eax
    1e30:	e8 cb ee ff ff       	callq  d00 <_Z11debugprintfPKcz>
    1e35:	4c 89 e8             	mov    %r13,%rax
    1e38:	48 83 c8 02          	or     $0x2,%rax
    1e3c:	0f b6 b4 04 40 02 00 	movzbl 0x240(%rsp,%rax,1),%esi
    1e43:	00 
    1e44:	48 89 df             	mov    %rbx,%rdi
    1e47:	31 c0                	xor    %eax,%eax
    1e49:	e8 b2 ee ff ff       	callq  d00 <_Z11debugprintfPKcz>
    1e4e:	4c 89 e8             	mov    %r13,%rax
    1e51:	48 83 c8 03          	or     $0x3,%rax
    1e55:	0f b6 b4 04 40 02 00 	movzbl 0x240(%rsp,%rax,1),%esi
    1e5c:	00 
    1e5d:	48 89 df             	mov    %rbx,%rdi
    1e60:	31 c0                	xor    %eax,%eax
    1e62:	e8 99 ee ff ff       	callq  d00 <_Z11debugprintfPKcz>
    1e67:	4c 89 e8             	mov    %r13,%rax
    1e6a:	48 83 c8 04          	or     $0x4,%rax
    1e6e:	0f b6 b4 04 40 02 00 	movzbl 0x240(%rsp,%rax,1),%esi
    1e75:	00 
    1e76:	48 89 df             	mov    %rbx,%rdi
    1e79:	31 c0                	xor    %eax,%eax
    1e7b:	e8 80 ee ff ff       	callq  d00 <_Z11debugprintfPKcz>
    1e80:	4c 89 e8             	mov    %r13,%rax
    1e83:	48 83 c8 05          	or     $0x5,%rax
    1e87:	0f b6 b4 04 40 02 00 	movzbl 0x240(%rsp,%rax,1),%esi
    1e8e:	00 
    1e8f:	48 89 df             	mov    %rbx,%rdi
    1e92:	31 c0                	xor    %eax,%eax
    1e94:	e8 67 ee ff ff       	callq  d00 <_Z11debugprintfPKcz>
    1e99:	4c 89 e8             	mov    %r13,%rax
    1e9c:	48 83 c8 06          	or     $0x6,%rax
    1ea0:	0f b6 b4 04 40 02 00 	movzbl 0x240(%rsp,%rax,1),%esi
    1ea7:	00 
    1ea8:	48 89 df             	mov    %rbx,%rdi
    1eab:	31 c0                	xor    %eax,%eax
    1ead:	e8 4e ee ff ff       	callq  d00 <_Z11debugprintfPKcz>
    1eb2:	4c 89 e8             	mov    %r13,%rax
    1eb5:	48 83 c8 07          	or     $0x7,%rax
    1eb9:	0f b6 b4 04 40 02 00 	movzbl 0x240(%rsp,%rax,1),%esi
    1ec0:	00 
    1ec1:	48 89 df             	mov    %rbx,%rdi
    1ec4:	31 c0                	xor    %eax,%eax
    1ec6:	e8 35 ee ff ff       	callq  d00 <_Z11debugprintfPKcz>
    1ecb:	4c 89 e8             	mov    %r13,%rax
    1ece:	48 83 c8 08          	or     $0x8,%rax
    1ed2:	0f b6 b4 04 40 02 00 	movzbl 0x240(%rsp,%rax,1),%esi
    1ed9:	00 
    1eda:	48 89 df             	mov    %rbx,%rdi
    1edd:	31 c0                	xor    %eax,%eax
    1edf:	e8 1c ee ff ff       	callq  d00 <_Z11debugprintfPKcz>
    1ee4:	4c 89 e8             	mov    %r13,%rax
    1ee7:	48 83 c8 09          	or     $0x9,%rax
    1eeb:	0f b6 b4 04 40 02 00 	movzbl 0x240(%rsp,%rax,1),%esi
    1ef2:	00 
    1ef3:	48 89 df             	mov    %rbx,%rdi
    1ef6:	31 c0                	xor    %eax,%eax
    1ef8:	e8 03 ee ff ff       	callq  d00 <_Z11debugprintfPKcz>
    1efd:	4c 89 e8             	mov    %r13,%rax
    1f00:	48 83 c8 0a          	or     $0xa,%rax
    1f04:	0f b6 b4 04 40 02 00 	movzbl 0x240(%rsp,%rax,1),%esi
    1f0b:	00 
    1f0c:	48 89 df             	mov    %rbx,%rdi
    1f0f:	31 c0                	xor    %eax,%eax
    1f11:	e8 ea ed ff ff       	callq  d00 <_Z11debugprintfPKcz>
    1f16:	4c 89 e8             	mov    %r13,%rax
    1f19:	48 83 c8 0b          	or     $0xb,%rax
    1f1d:	0f b6 b4 04 40 02 00 	movzbl 0x240(%rsp,%rax,1),%esi
    1f24:	00 
    1f25:	48 89 df             	mov    %rbx,%rdi
    1f28:	31 c0                	xor    %eax,%eax
    1f2a:	e8 d1 ed ff ff       	callq  d00 <_Z11debugprintfPKcz>
    1f2f:	4c 89 e8             	mov    %r13,%rax
    1f32:	48 83 c8 0c          	or     $0xc,%rax
    1f36:	0f b6 b4 04 40 02 00 	movzbl 0x240(%rsp,%rax,1),%esi
    1f3d:	00 
    1f3e:	48 89 df             	mov    %rbx,%rdi
    1f41:	31 c0                	xor    %eax,%eax
    1f43:	e8 b8 ed ff ff       	callq  d00 <_Z11debugprintfPKcz>
    1f48:	4c 89 e8             	mov    %r13,%rax
    1f4b:	48 83 c8 0d          	or     $0xd,%rax
    1f4f:	0f b6 b4 04 40 02 00 	movzbl 0x240(%rsp,%rax,1),%esi
    1f56:	00 
    1f57:	48 89 df             	mov    %rbx,%rdi
    1f5a:	31 c0                	xor    %eax,%eax
    1f5c:	e8 9f ed ff ff       	callq  d00 <_Z11debugprintfPKcz>
    1f61:	4c 89 e8             	mov    %r13,%rax
    1f64:	48 83 c8 0e          	or     $0xe,%rax
    1f68:	0f b6 b4 04 40 02 00 	movzbl 0x240(%rsp,%rax,1),%esi
    1f6f:	00 
    1f70:	48 89 df             	mov    %rbx,%rdi
    1f73:	31 c0                	xor    %eax,%eax
    1f75:	e8 86 ed ff ff       	callq  d00 <_Z11debugprintfPKcz>
    1f7a:	49 83 cd 0f          	or     $0xf,%r13
    1f7e:	42 0f b6 b4 2c 40 02 	movzbl 0x240(%rsp,%r13,1),%esi
    1f85:	00 00 
    1f87:	4d 89 e5             	mov    %r12,%r13
    1f8a:	48 89 df             	mov    %rbx,%rdi
    1f8d:	31 c0                	xor    %eax,%eax
    1f8f:	e8 6c ed ff ff       	callq  d00 <_Z11debugprintfPKcz>
    1f94:	48 8d 3d c5 f6 01 00 	lea    0x1f6c5(%rip),%rdi        # 21660 <g_dyn_entry_table+0x2c0>
    1f9b:	31 c0                	xor    %eax,%eax
    1f9d:	e8 5e ed ff ff       	callq  d00 <_Z11debugprintfPKcz>
    1fa2:	49 83 c6 01          	add    $0x1,%r14
    1fa6:	44 8b 25 c3 45 22 00 	mov    0x2245c3(%rip),%r12d        # 226570 <finalhash+0x10>
    1fad:	49 83 c5 10          	add    $0x10,%r13
    1fb1:	4d 39 e6             	cmp    %r12,%r14
    1fb4:	0f 82 86 fc ff ff    	jb     1c40 <_Z22check_hash_measurementv+0x220>
    1fba:	41 c1 e4 04          	shl    $0x4,%r12d
    1fbe:	48 8d bc 24 40 02 00 	lea    0x240(%rsp),%rdi
    1fc5:	00 
    1fc6:	48 8d b4 24 20 02 00 	lea    0x220(%rsp),%rsi
    1fcd:	00 
    1fce:	48 8d 94 24 30 02 00 	lea    0x230(%rsp),%rdx
    1fd5:	00 
    1fd6:	4c 8d 84 24 10 02 00 	lea    0x210(%rsp),%r8
    1fdd:	00 
    1fde:	4c 89 e1             	mov    %r12,%rcx
    1fe1:	e8 da 11 00 00       	callq  31c0 <aesni_hash>
    1fe6:	48 8d 3d 51 f4 01 00 	lea    0x1f451(%rip),%rdi        # 2143e <g_dyn_entry_table+0x9e>
    1fed:	31 c0                	xor    %eax,%eax
    1fef:	e8 0c ed ff ff       	callq  d00 <_Z11debugprintfPKcz>
    1ff4:	48 8d 2d 65 45 22 00 	lea    0x224565(%rip),%rbp        # 226560 <finalhash>
    1ffb:	4c 8d 2d 23 f4 01 00 	lea    0x1f423(%rip),%r13        # 21425 <g_dyn_entry_table+0x85>
    2002:	4c 8d 35 4f f4 01 00 	lea    0x1f44f(%rip),%r14        # 21458 <g_dyn_entry_table+0xb8>
    2009:	4c 8d 25 3b f4 01 00 	lea    0x1f43b(%rip),%r12        # 2144b <g_dyn_entry_table+0xab>
    2010:	31 db                	xor    %ebx,%ebx
    2012:	66 2e 0f 1f 84 00 00 	nopw   %cs:0x0(%rax,%rax,1)
    2019:	00 00 00 
    201c:	0f 1f 40 00          	nopl   0x0(%rax)
    2020:	0f b6 84 1c 20 02 00 	movzbl 0x220(%rsp,%rbx,1),%eax
    2027:	00 
    2028:	3a 04 2b             	cmp    (%rbx,%rbp,1),%al
    202b:	74 12                	je     203f <_Z22check_hash_measurementv+0x61f>
    202d:	4c 89 e7             	mov    %r12,%rdi
    2030:	31 c0                	xor    %eax,%eax
    2032:	e8 c9 ec ff ff       	callq  d00 <_Z11debugprintfPKcz>
    2037:	0f b6 84 1c 20 02 00 	movzbl 0x220(%rsp,%rbx,1),%eax
    203e:	00 
    203f:	0f b6 f0             	movzbl %al,%esi
    2042:	4c 89 ef             	mov    %r13,%rdi
    2045:	31 c0                	xor    %eax,%eax
    2047:	e8 b4 ec ff ff       	callq  d00 <_Z11debugprintfPKcz>
    204c:	0f b6 34 2b          	movzbl (%rbx,%rbp,1),%esi
    2050:	40 38 b4 1c 20 02 00 	cmp    %sil,0x220(%rsp,%rbx,1)
    2057:	00 
    2058:	74 0a                	je     2064 <_Z22check_hash_measurementv+0x644>
    205a:	4c 89 f7             	mov    %r14,%rdi
    205d:	31 c0                	xor    %eax,%eax
    205f:	e8 9c ec ff ff       	callq  d00 <_Z11debugprintfPKcz>
    2064:	48 83 c3 01          	add    $0x1,%rbx
    2068:	48 83 fb 10          	cmp    $0x10,%rbx
    206c:	75 b2                	jne    2020 <_Z22check_hash_measurementv+0x600>
    206e:	48 8d 3d eb f5 01 00 	lea    0x1f5eb(%rip),%rdi        # 21660 <g_dyn_entry_table+0x2c0>
    2075:	31 c0                	xor    %eax,%eax
    2077:	e8 84 ec ff ff       	callq  d00 <_Z11debugprintfPKcz>
    207c:	64 48 8b 04 25 28 00 	mov    %fs:0x28,%rax
    2083:	00 00 
    2085:	48 3b 84 24 e8 02 00 	cmp    0x2e8(%rsp),%rax
    208c:	00 
    208d:	75 10                	jne    209f <_Z22check_hash_measurementv+0x67f>
    208f:	48 81 c4 f0 02 00 00 	add    $0x2f0,%rsp
    2096:	5b                   	pop    %rbx
    2097:	41 5c                	pop    %r12
    2099:	41 5d                	pop    %r13
    209b:	41 5e                	pop    %r14
    209d:	5d                   	pop    %rbp
    209e:	c3                   	retq   
    209f:	e8 2c 41 00 00       	callq  61d0 <__stack_chk_fail>
    20a4:	66 2e 0f 1f 84 00 00 	nopw   %cs:0x0(%rax,%rax,1)
    20ab:	00 00 00 
    20ae:	66 90                	xchg   %ax,%ax

00000000000020b0 <_Z23generate_section_headerPKv>:
    20b0:	55                   	push   %rbp
    20b1:	41 56                	push   %r14
    20b3:	41 55                	push   %r13
    20b5:	41 54                	push   %r12
    20b7:	53                   	push   %rbx
    20b8:	48 83 ec 30          	sub    $0x30,%rsp
    20bc:	48 85 ff             	test   %rdi,%rdi
    20bf:	0f 84 f3 01 00 00    	je     22b8 <_Z23generate_section_headerPKv+0x208>
    20c5:	48 89 fb             	mov    %rdi,%rbx
    20c8:	80 3f 7f             	cmpb   $0x7f,(%rdi)
    20cb:	0f 85 da 01 00 00    	jne    22ab <_Z23generate_section_headerPKv+0x1fb>
    20d1:	80 7b 01 45          	cmpb   $0x45,0x1(%rbx)
    20d5:	0f 85 d0 01 00 00    	jne    22ab <_Z23generate_section_headerPKv+0x1fb>
    20db:	80 7b 02 4c          	cmpb   $0x4c,0x2(%rbx)
    20df:	0f 85 c6 01 00 00    	jne    22ab <_Z23generate_section_headerPKv+0x1fb>
    20e5:	80 7b 03 46          	cmpb   $0x46,0x3(%rbx)
    20e9:	0f 85 bc 01 00 00    	jne    22ab <_Z23generate_section_headerPKv+0x1fb>
    20ef:	66 83 7b 10 03       	cmpw   $0x3,0x10(%rbx)
    20f4:	0f 85 b1 01 00 00    	jne    22ab <_Z23generate_section_headerPKv+0x1fb>
    20fa:	48 8b 6b 20          	mov    0x20(%rbx),%rbp
    20fe:	48 01 dd             	add    %rbx,%rbp
    2101:	0f 84 a4 01 00 00    	je     22ab <_Z23generate_section_headerPKv+0x1fb>
    2107:	4c 8d 35 52 44 22 00 	lea    0x224452(%rip),%r14        # 226560 <finalhash>
    210e:	49 29 de             	sub    %rbx,%r14
    2111:	48 8d 3d 7a f3 01 00 	lea    0x1f37a(%rip),%rdi        # 21492 <g_dyn_entry_table+0xf2>
    2118:	4c 89 f6             	mov    %r14,%rsi
    211b:	31 c0                	xor    %eax,%eax
    211d:	e8 de eb ff ff       	callq  d00 <_Z11debugprintfPKcz>
    2122:	66 83 7b 38 00       	cmpw   $0x0,0x38(%rbx)
    2127:	0f 84 7e 01 00 00    	je     22ab <_Z23generate_section_headerPKv+0x1fb>
    212d:	4d 8d 66 14          	lea    0x14(%r14),%r12
    2131:	48 83 c5 30          	add    $0x30,%rbp
    2135:	45 31 ed             	xor    %r13d,%r13d
    2138:	0f 1f 84 00 00 00 00 	nopl   0x0(%rax,%rax,1)
    213f:	00 
    2140:	8b 55 d4             	mov    -0x2c(%rbp),%edx
    2143:	f6 c2 02             	test   $0x2,%dl
    2146:	0f 84 4a 01 00 00    	je     2296 <_Z23generate_section_headerPKv+0x1e6>
    214c:	8b 75 d0             	mov    -0x30(%rbp),%esi
    214f:	48 8b 4d d8          	mov    -0x28(%rbp),%rcx
    2153:	4c 8b 45 e0          	mov    -0x20(%rbp),%r8
    2157:	4c 8b 4d e8          	mov    -0x18(%rbp),%r9
    215b:	0f 10 45 f0          	movups -0x10(%rbp),%xmm0
    215f:	48 8b 45 00          	mov    0x0(%rbp),%rax
    2163:	48 89 44 24 10       	mov    %rax,0x10(%rsp)
    2168:	0f 11 04 24          	movups %xmm0,(%rsp)
    216c:	48 8d 3d 36 f3 01 00 	lea    0x1f336(%rip),%rdi        # 214a9 <g_dyn_entry_table+0x109>
    2173:	31 c0                	xor    %eax,%eax
    2175:	e8 86 eb ff ff       	callq  d00 <_Z11debugprintfPKcz>
    217a:	48 8b 45 e0          	mov    -0x20(%rbp),%rax
    217e:	48 8b 4d f8          	mov    -0x8(%rbp),%rcx
    2182:	48 01 c1             	add    %rax,%rcx
    2185:	4c 39 f0             	cmp    %r14,%rax
    2188:	73 43                	jae    21cd <_Z23generate_section_headerPKv+0x11d>
    218a:	4c 39 e1             	cmp    %r12,%rcx
    218d:	76 3e                	jbe    21cd <_Z23generate_section_headerPKv+0x11d>
    218f:	48 8d 3d 2c f3 01 00 	lea    0x1f32c(%rip),%rdi        # 214c2 <g_dyn_entry_table+0x122>
    2196:	31 c0                	xor    %eax,%eax
    2198:	e8 63 eb ff ff       	callq  d00 <_Z11debugprintfPKcz>
    219d:	48 8b 45 e0          	mov    -0x20(%rbp),%rax
    21a1:	48 89 44 24 20       	mov    %rax,0x20(%rsp)
    21a6:	4c 89 74 24 28       	mov    %r14,0x28(%rsp)
    21ab:	48 8b 05 d6 43 22 00 	mov    0x2243d6(%rip),%rax        # 226588 <interval_set+0x8>
    21b2:	48 3b 05 d7 43 22 00 	cmp    0x2243d7(%rip),%rax        # 226590 <interval_set+0x10>
    21b9:	74 57                	je     2212 <_Z23generate_section_headerPKv+0x162>
    21bb:	0f 10 44 24 20       	movups 0x20(%rsp),%xmm0
    21c0:	0f 11 00             	movups %xmm0,(%rax)
    21c3:	48 83 05 bd 43 22 00 	addq   $0x10,0x2243bd(%rip)        # 226588 <interval_set+0x8>
    21ca:	10 
    21cb:	eb 56                	jmp    2223 <_Z23generate_section_headerPKv+0x173>
    21cd:	48 89 44 24 20       	mov    %rax,0x20(%rsp)
    21d2:	48 89 4c 24 28       	mov    %rcx,0x28(%rsp)
    21d7:	48 8b 05 aa 43 22 00 	mov    0x2243aa(%rip),%rax        # 226588 <interval_set+0x8>
    21de:	48 3b 05 ab 43 22 00 	cmp    0x2243ab(%rip),%rax        # 226590 <interval_set+0x10>
    21e5:	74 15                	je     21fc <_Z23generate_section_headerPKv+0x14c>
    21e7:	0f 10 44 24 20       	movups 0x20(%rsp),%xmm0
    21ec:	0f 11 00             	movups %xmm0,(%rax)
    21ef:	48 83 05 91 43 22 00 	addq   $0x10,0x224391(%rip)        # 226588 <interval_set+0x8>
    21f6:	10 
    21f7:	e9 9a 00 00 00       	jmpq   2296 <_Z23generate_section_headerPKv+0x1e6>
    21fc:	48 8d 3d 7d 43 22 00 	lea    0x22437d(%rip),%rdi        # 226580 <interval_set>
    2203:	48 8d 74 24 20       	lea    0x20(%rsp),%rsi
    2208:	e8 53 0e 00 00       	callq  3060 <_ZNSt3__16vectorI8IntervalNS_9allocatorIS1_EEE21__push_back_slow_pathIRKS1_EEvOT_>
    220d:	e9 84 00 00 00       	jmpq   2296 <_Z23generate_section_headerPKv+0x1e6>
    2212:	48 8d 3d 67 43 22 00 	lea    0x224367(%rip),%rdi        # 226580 <interval_set>
    2219:	48 8d 74 24 20       	lea    0x20(%rsp),%rsi
    221e:	e8 3d 0e 00 00       	callq  3060 <_ZNSt3__16vectorI8IntervalNS_9allocatorIS1_EEE21__push_back_slow_pathIRKS1_EEvOT_>
    2223:	48 8b 75 e0          	mov    -0x20(%rbp),%rsi
    2227:	48 8d 3d b0 f2 01 00 	lea    0x1f2b0(%rip),%rdi        # 214de <g_dyn_entry_table+0x13e>
    222e:	4c 89 f2             	mov    %r14,%rdx
    2231:	31 c0                	xor    %eax,%eax
    2233:	e8 c8 ea ff ff       	callq  d00 <_Z11debugprintfPKcz>
    2238:	4c 89 64 24 20       	mov    %r12,0x20(%rsp)
    223d:	48 8b 45 f8          	mov    -0x8(%rbp),%rax
    2241:	48 03 45 e0          	add    -0x20(%rbp),%rax
    2245:	48 89 44 24 28       	mov    %rax,0x28(%rsp)
    224a:	48 8b 05 37 43 22 00 	mov    0x224337(%rip),%rax        # 226588 <interval_set+0x8>
    2251:	48 3b 05 38 43 22 00 	cmp    0x224338(%rip),%rax        # 226590 <interval_set+0x10>
    2258:	74 12                	je     226c <_Z23generate_section_headerPKv+0x1bc>
    225a:	0f 10 44 24 20       	movups 0x20(%rsp),%xmm0
    225f:	0f 11 00             	movups %xmm0,(%rax)
    2262:	48 83 05 1e 43 22 00 	addq   $0x10,0x22431e(%rip)        # 226588 <interval_set+0x8>
    2269:	10 
    226a:	eb 11                	jmp    227d <_Z23generate_section_headerPKv+0x1cd>
    226c:	48 8d 3d 0d 43 22 00 	lea    0x22430d(%rip),%rdi        # 226580 <interval_set>
    2273:	48 8d 74 24 20       	lea    0x20(%rsp),%rsi
    2278:	e8 e3 0d 00 00       	callq  3060 <_ZNSt3__16vectorI8IntervalNS_9allocatorIS1_EEE21__push_back_slow_pathIRKS1_EEvOT_>
    227d:	48 8b 55 f8          	mov    -0x8(%rbp),%rdx
    2281:	48 03 55 e0          	add    -0x20(%rbp),%rdx
    2285:	48 8d 3d 4e f2 01 00 	lea    0x1f24e(%rip),%rdi        # 214da <g_dyn_entry_table+0x13a>
    228c:	4c 89 e6             	mov    %r12,%rsi
    228f:	31 c0                	xor    %eax,%eax
    2291:	e8 6a ea ff ff       	callq  d00 <_Z11debugprintfPKcz>
    2296:	41 83 c5 01          	add    $0x1,%r13d
    229a:	0f b7 43 38          	movzwl 0x38(%rbx),%eax
    229e:	48 83 c5 38          	add    $0x38,%rbp
    22a2:	41 39 c5             	cmp    %eax,%r13d
    22a5:	0f 82 95 fe ff ff    	jb     2140 <_Z23generate_section_headerPKv+0x90>
    22ab:	48 83 c4 30          	add    $0x30,%rsp
    22af:	5b                   	pop    %rbx
    22b0:	41 5c                	pop    %r12
    22b2:	41 5d                	pop    %r13
    22b4:	41 5e                	pop    %r14
    22b6:	5d                   	pop    %rbp
    22b7:	c3                   	retq   
    22b8:	48 8d 3d c3 f1 01 00 	lea    0x1f1c3(%rip),%rdi        # 21482 <g_dyn_entry_table+0xe2>
    22bf:	31 c0                	xor    %eax,%eax
    22c1:	48 83 c4 30          	add    $0x30,%rsp
    22c5:	5b                   	pop    %rbx
    22c6:	41 5c                	pop    %r12
    22c8:	41 5d                	pop    %r13
    22ca:	41 5e                	pop    %r14
    22cc:	5d                   	pop    %rbp
    22cd:	e9 2e ea ff ff       	jmpq   d00 <_Z11debugprintfPKcz>
    22d2:	66 2e 0f 1f 84 00 00 	nopw   %cs:0x0(%rax,%rax,1)
    22d9:	00 00 00 
    22dc:	0f 1f 40 00          	nopl   0x0(%rax)

00000000000022e0 <_Z9hash_testv>:
    22e0:	53                   	push   %rbx
    22e1:	48 83 ec 20          	sub    $0x20,%rsp
    22e5:	48 8d 3d a6 f2 01 00 	lea    0x1f2a6(%rip),%rdi        # 21592 <g_dyn_entry_table+0x1f2>
    22ec:	31 c0                	xor    %eax,%eax
    22ee:	e8 0d ea ff ff       	callq  d00 <_Z11debugprintfPKcz>
    22f3:	e8 07 ed 01 00       	callq  20fff <get_enclave_base>
    22f8:	48 8d 3d bb f2 01 00 	lea    0x1f2bb(%rip),%rdi        # 215ba <g_dyn_entry_table+0x21a>
    22ff:	48 89 c6             	mov    %rax,%rsi
    2302:	31 c0                	xor    %eax,%eax
    2304:	e8 f7 e9 ff ff       	callq  d00 <_Z11debugprintfPKcz>
    2309:	e8 72 2d 00 00       	callq  5080 <get_enclave_size>
    230e:	48 8d 3d bf f2 01 00 	lea    0x1f2bf(%rip),%rdi        # 215d4 <g_dyn_entry_table+0x234>
    2315:	48 89 c6             	mov    %rax,%rsi
    2318:	31 c0                	xor    %eax,%eax
    231a:	e8 e1 e9 ff ff       	callq  d00 <_Z11debugprintfPKcz>
    231f:	48 8d 3d c0 f2 01 00 	lea    0x1f2c0(%rip),%rdi        # 215e6 <g_dyn_entry_table+0x246>
    2326:	31 c0                	xor    %eax,%eax
    2328:	e8 d3 e9 ff ff       	callq  d00 <_Z11debugprintfPKcz>
    232d:	e8 5e 2d 00 00       	callq  5090 <get_heap_base>
    2332:	48 89 c3             	mov    %rax,%rbx
    2335:	e8 76 2d 00 00       	callq  50b0 <get_heap_size>
    233a:	48 8d 3d b8 f2 01 00 	lea    0x1f2b8(%rip),%rdi        # 215f9 <g_dyn_entry_table+0x259>
    2341:	48 89 de             	mov    %rbx,%rsi
    2344:	48 89 c2             	mov    %rax,%rdx
    2347:	31 c0                	xor    %eax,%eax
    2349:	e8 b2 e9 ff ff       	callq  d00 <_Z11debugprintfPKcz>
    234e:	48 8d 3d b8 f2 01 00 	lea    0x1f2b8(%rip),%rdi        # 2160d <g_dyn_entry_table+0x26d>
    2355:	31 c0                	xor    %eax,%eax
    2357:	e8 a4 e9 ff ff       	callq  d00 <_Z11debugprintfPKcz>
    235c:	e8 9e ec 01 00       	callq  20fff <get_enclave_base>
    2361:	48 89 c7             	mov    %rax,%rdi
    2364:	e8 47 fd ff ff       	callq  20b0 <_Z23generate_section_headerPKv>
    2369:	48 8d 35 10 42 22 00 	lea    0x224210(%rip),%rsi        # 226580 <interval_set>
    2370:	48 8d 5c 24 08       	lea    0x8(%rsp),%rbx
    2375:	48 89 df             	mov    %rbx,%rdi
    2378:	e8 b3 00 00 00       	callq  2430 <_ZNSt3__16vectorI8IntervalNS_9allocatorIS1_EEEC2ERKS4_>
    237d:	48 89 df             	mov    %rbx,%rdi
    2380:	e8 cb ea ff ff       	callq  e50 <_Z14mergeIntervalsNSt3__16vectorI8IntervalNS_9allocatorIS1_EEEE>
    2385:	48 8b 7c 24 08       	mov    0x8(%rsp),%rdi
    238a:	48 85 ff             	test   %rdi,%rdi
    238d:	74 29                	je     23b8 <_Z9hash_testv+0xd8>
    238f:	48 8b 44 24 10       	mov    0x10(%rsp),%rax
    2394:	48 39 f8             	cmp    %rdi,%rax
    2397:	74 1a                	je     23b3 <_Z9hash_testv+0xd3>
    2399:	48 8d 48 f0          	lea    -0x10(%rax),%rcx
    239d:	48 29 f9             	sub    %rdi,%rcx
    23a0:	48 c1 e9 04          	shr    $0x4,%rcx
    23a4:	48 f7 d1             	not    %rcx
    23a7:	48 c1 e1 04          	shl    $0x4,%rcx
    23ab:	48 01 c1             	add    %rax,%rcx
    23ae:	48 89 4c 24 10       	mov    %rcx,0x10(%rsp)
    23b3:	e8 98 75 01 00       	callq  19950 <_ZdlPv>
    23b8:	48 8d 3d 87 f2 01 00 	lea    0x1f287(%rip),%rdi        # 21646 <g_dyn_entry_table+0x2a6>
    23bf:	31 c0                	xor    %eax,%eax
    23c1:	e8 3a e9 ff ff       	callq  d00 <_Z11debugprintfPKcz>
    23c6:	e8 45 ef ff ff       	callq  1310 <_Z12generateHashv>
    23cb:	48 8d 3d 90 f2 01 00 	lea    0x1f290(%rip),%rdi        # 21662 <g_dyn_entry_table+0x2c2>
    23d2:	31 c0                	xor    %eax,%eax
    23d4:	e8 27 e9 ff ff       	callq  d00 <_Z11debugprintfPKcz>
    23d9:	e8 42 f6 ff ff       	callq  1a20 <_Z22check_hash_measurementv>
    23de:	e8 3d f6 ff ff       	callq  1a20 <_Z22check_hash_measurementv>
    23e3:	e8 38 f6 ff ff       	callq  1a20 <_Z22check_hash_measurementv>
    23e8:	48 83 c4 20          	add    $0x20,%rsp
    23ec:	5b                   	pop    %rbx
    23ed:	c3                   	retq   
    23ee:	48 89 c3             	mov    %rax,%rbx
    23f1:	48 8b 7c 24 08       	mov    0x8(%rsp),%rdi
    23f6:	48 85 ff             	test   %rdi,%rdi
    23f9:	74 29                	je     2424 <_Z9hash_testv+0x144>
    23fb:	48 8b 44 24 10       	mov    0x10(%rsp),%rax
    2400:	48 39 f8             	cmp    %rdi,%rax
    2403:	74 1a                	je     241f <_Z9hash_testv+0x13f>
    2405:	48 8d 48 f0          	lea    -0x10(%rax),%rcx
    2409:	48 29 f9             	sub    %rdi,%rcx
    240c:	48 c1 e9 04          	shr    $0x4,%rcx
    2410:	48 f7 d1             	not    %rcx
    2413:	48 c1 e1 04          	shl    $0x4,%rcx
    2417:	48 01 c1             	add    %rax,%rcx
    241a:	48 89 4c 24 10       	mov    %rcx,0x10(%rsp)
    241f:	e8 2c 75 01 00       	callq  19950 <_ZdlPv>
    2424:	48 89 df             	mov    %rbx,%rdi
    2427:	e8 74 21 01 00       	callq  145a0 <_Unwind_Resume>
    242c:	0f 1f 40 00          	nopl   0x0(%rax)

0000000000002430 <_ZNSt3__16vectorI8IntervalNS_9allocatorIS1_EEEC2ERKS4_>:
    2430:	41 56                	push   %r14
    2432:	41 55                	push   %r13
    2434:	41 54                	push   %r12
    2436:	53                   	push   %rbx
    2437:	50                   	push   %rax
    2438:	49 89 fe             	mov    %rdi,%r14
    243b:	0f 57 c0             	xorps  %xmm0,%xmm0
    243e:	0f 11 07             	movups %xmm0,(%rdi)
    2441:	48 c7 47 10 00 00 00 	movq   $0x0,0x10(%rdi)
    2448:	00 
    2449:	48 8b 7e 08          	mov    0x8(%rsi),%rdi
    244d:	48 2b 3e             	sub    (%rsi),%rdi
    2450:	74 50                	je     24a2 <_ZNSt3__16vectorI8IntervalNS_9allocatorIS1_EEEC2ERKS4_+0x72>
    2452:	48 89 fb             	mov    %rdi,%rbx
    2455:	48 c1 fb 04          	sar    $0x4,%rbx
    2459:	48 89 d8             	mov    %rbx,%rax
    245c:	48 c1 e8 3c          	shr    $0x3c,%rax
    2460:	75 4c                	jne    24ae <_ZNSt3__16vectorI8IntervalNS_9allocatorIS1_EEEC2ERKS4_+0x7e>
    2462:	49 89 f4             	mov    %rsi,%r12
    2465:	e8 f6 74 01 00       	callq  19960 <_Znwm>
    246a:	49 89 c5             	mov    %rax,%r13
    246d:	49 89 46 08          	mov    %rax,0x8(%r14)
    2471:	49 89 06             	mov    %rax,(%r14)
    2474:	48 c1 e3 04          	shl    $0x4,%rbx
    2478:	48 01 c3             	add    %rax,%rbx
    247b:	49 89 5e 10          	mov    %rbx,0x10(%r14)
    247f:	49 8b 34 24          	mov    (%r12),%rsi
    2483:	49 8b 5c 24 08       	mov    0x8(%r12),%rbx
    2488:	48 29 f3             	sub    %rsi,%rbx
    248b:	48 85 db             	test   %rbx,%rbx
    248e:	7e 12                	jle    24a2 <_ZNSt3__16vectorI8IntervalNS_9allocatorIS1_EEEC2ERKS4_+0x72>
    2490:	4c 89 ef             	mov    %r13,%rdi
    2493:	48 89 da             	mov    %rbx,%rdx
    2496:	e8 a5 6c 00 00       	callq  9140 <memcpy>
    249b:	49 01 dd             	add    %rbx,%r13
    249e:	4d 89 6e 08          	mov    %r13,0x8(%r14)
    24a2:	48 83 c4 08          	add    $0x8,%rsp
    24a6:	5b                   	pop    %rbx
    24a7:	41 5c                	pop    %r12
    24a9:	41 5d                	pop    %r13
    24ab:	41 5e                	pop    %r14
    24ad:	c3                   	retq   
    24ae:	4c 89 f7             	mov    %r14,%rdi
    24b1:	e8 4a 75 01 00       	callq  19a00 <_ZNKSt3__120__vector_base_commonILb1EE20__throw_length_errorEv>
    24b6:	bf 08 00 00 00       	mov    $0x8,%edi
    24bb:	e8 60 60 01 00       	callq  18520 <__cxa_allocate_exception>
    24c0:	48 89 c3             	mov    %rax,%rbx
    24c3:	48 89 c7             	mov    %rax,%rdi
    24c6:	e8 d5 73 01 00       	callq  198a0 <_ZNSt9bad_allocC1Ev>
    24cb:	48 8d 35 e6 37 22 00 	lea    0x2237e6(%rip),%rsi        # 225cb8 <_ZTISt9bad_alloc>
    24d2:	48 8d 15 97 73 01 00 	lea    0x17397(%rip),%rdx        # 19870 <_ZNSt10bad_typeidD1Ev>
    24d9:	48 89 df             	mov    %rbx,%rdi
    24dc:	e8 ef 67 01 00       	callq  18cd0 <__cxa_throw>
    24e1:	48 89 c3             	mov    %rax,%rbx
    24e4:	49 8b 3e             	mov    (%r14),%rdi
    24e7:	48 85 ff             	test   %rdi,%rdi
    24ea:	74 27                	je     2513 <_ZNSt3__16vectorI8IntervalNS_9allocatorIS1_EEEC2ERKS4_+0xe3>
    24ec:	49 8b 46 08          	mov    0x8(%r14),%rax
    24f0:	48 39 f8             	cmp    %rdi,%rax
    24f3:	74 19                	je     250e <_ZNSt3__16vectorI8IntervalNS_9allocatorIS1_EEEC2ERKS4_+0xde>
    24f5:	48 8d 48 f0          	lea    -0x10(%rax),%rcx
    24f9:	48 29 f9             	sub    %rdi,%rcx
    24fc:	48 c1 e9 04          	shr    $0x4,%rcx
    2500:	48 f7 d1             	not    %rcx
    2503:	48 c1 e1 04          	shl    $0x4,%rcx
    2507:	48 01 c1             	add    %rax,%rcx
    250a:	49 89 4e 08          	mov    %rcx,0x8(%r14)
    250e:	e8 3d 74 01 00       	callq  19950 <_ZdlPv>
    2513:	48 89 df             	mov    %rbx,%rdi
    2516:	e8 85 20 01 00       	callq  145a0 <_Unwind_Resume>
    251b:	0f 1f 44 00 00       	nopl   0x0(%rax,%rax,1)

0000000000002520 <_ZNSt3__16__sortIRPFb8IntervalS1_EPS1_EEvT0_S6_T_>:
    2520:	55                   	push   %rbp
    2521:	41 56                	push   %r14
    2523:	41 55                	push   %r13
    2525:	41 54                	push   %r12
    2527:	53                   	push   %rbx
    2528:	48 83 ec 40          	sub    $0x40,%rsp
    252c:	48 89 d3             	mov    %rdx,%rbx
    252f:	48 89 34 24          	mov    %rsi,(%rsp)
    2533:	49 89 fc             	mov    %rdi,%r12
    2536:	48 89 54 24 18       	mov    %rdx,0x18(%rsp)
    253b:	eb 23                	jmp    2560 <_ZNSt3__16__sortIRPFb8IntervalS1_EPS1_EEvT0_S6_T_+0x40>
    253d:	49 8d 7e 10          	lea    0x10(%r14),%rdi
    2541:	48 8b 34 24          	mov    (%rsp),%rsi
    2545:	48 89 da             	mov    %rbx,%rdx
    2548:	e8 d3 ff ff ff       	callq  2520 <_ZNSt3__16__sortIRPFb8IntervalS1_EPS1_EEvT0_S6_T_>
    254d:	4c 89 34 24          	mov    %r14,(%rsp)
    2551:	66 2e 0f 1f 84 00 00 	nopw   %cs:0x0(%rax,%rax,1)
    2558:	00 00 00 
    255b:	0f 1f 44 00 00       	nopl   0x0(%rax,%rax,1)
    2560:	48 8b 04 24          	mov    (%rsp),%rax
    2564:	4c 8d 68 f0          	lea    -0x10(%rax),%r13
    2568:	48 89 04 24          	mov    %rax,(%rsp)
    256c:	48 8d 40 e0          	lea    -0x20(%rax),%rax
    2570:	48 89 44 24 38       	mov    %rax,0x38(%rsp)
    2575:	4c 89 e5             	mov    %r12,%rbp
    2578:	4c 89 6c 24 30       	mov    %r13,0x30(%rsp)
    257d:	eb 16                	jmp    2595 <_ZNSt3__16__sortIRPFb8IntervalS1_EPS1_EEvT0_S6_T_+0x75>
    257f:	90                   	nop
    2580:	4c 89 e7             	mov    %r12,%rdi
    2583:	4c 89 f6             	mov    %r14,%rsi
    2586:	48 89 da             	mov    %rbx,%rdx
    2589:	e8 92 ff ff ff       	callq  2520 <_ZNSt3__16__sortIRPFb8IntervalS1_EPS1_EEvT0_S6_T_>
    258e:	49 83 c6 10          	add    $0x10,%r14
    2592:	4c 89 f5             	mov    %r14,%rbp
    2595:	49 89 ec             	mov    %rbp,%r12
    2598:	eb 13                	jmp    25ad <_ZNSt3__16__sortIRPFb8IntervalS1_EPS1_EEvT0_S6_T_+0x8d>
    259a:	66 0f 1f 44 00 00    	nopw   0x0(%rax,%rax,1)
    25a0:	49 89 dc             	mov    %rbx,%r12
    25a3:	48 8b 5c 24 18       	mov    0x18(%rsp),%rbx
    25a8:	4c 8b 6c 24 30       	mov    0x30(%rsp),%r13
    25ad:	48 8b 0c 24          	mov    (%rsp),%rcx
    25b1:	4c 29 e1             	sub    %r12,%rcx
    25b4:	48 89 c8             	mov    %rcx,%rax
    25b7:	48 c1 f8 04          	sar    $0x4,%rax
    25bb:	48 83 f8 05          	cmp    $0x5,%rax
    25bf:	0f 86 ab 03 00 00    	jbe    2970 <_ZNSt3__16__sortIRPFb8IntervalS1_EPS1_EEvT0_S6_T_+0x450>
    25c5:	48 81 f9 ef 01 00 00 	cmp    $0x1ef,%rcx
    25cc:	0f 8e f2 03 00 00    	jle    29c4 <_ZNSt3__16__sortIRPFb8IntervalS1_EPS1_EEvT0_S6_T_+0x4a4>
    25d2:	49 89 c6             	mov    %rax,%r14
    25d5:	49 c1 ee 3f          	shr    $0x3f,%r14
    25d9:	49 01 c6             	add    %rax,%r14
    25dc:	49 d1 fe             	sar    %r14
    25df:	49 c1 e6 04          	shl    $0x4,%r14
    25e3:	4b 8d 2c 34          	lea    (%r12,%r14,1),%rbp
    25e7:	48 81 f9 71 3e 00 00 	cmp    $0x3e71,%rcx
    25ee:	7c 30                	jl     2620 <_ZNSt3__16__sortIRPFb8IntervalS1_EPS1_EEvT0_S6_T_+0x100>
    25f0:	48 89 c1             	mov    %rax,%rcx
    25f3:	48 c1 f9 3f          	sar    $0x3f,%rcx
    25f7:	48 c1 e9 3e          	shr    $0x3e,%rcx
    25fb:	48 01 c1             	add    %rax,%rcx
    25fe:	48 c1 e1 02          	shl    $0x2,%rcx
    2602:	48 83 e1 f0          	and    $0xfffffffffffffff0,%rcx
    2606:	49 8d 34 0c          	lea    (%r12,%rcx,1),%rsi
    260a:	48 01 e9             	add    %rbp,%rcx
    260d:	4c 89 e7             	mov    %r12,%rdi
    2610:	48 89 ea             	mov    %rbp,%rdx
    2613:	4d 89 e8             	mov    %r13,%r8
    2616:	49 89 d9             	mov    %rbx,%r9
    2619:	e8 32 07 00 00       	callq  2d50 <_ZNSt3__17__sort5IRPFb8IntervalS1_EPS1_EEjT0_S6_S6_S6_S6_T_>
    261e:	eb 11                	jmp    2631 <_ZNSt3__16__sortIRPFb8IntervalS1_EPS1_EEvT0_S6_T_+0x111>
    2620:	4c 89 e7             	mov    %r12,%rdi
    2623:	48 89 ee             	mov    %rbp,%rsi
    2626:	4c 89 ea             	mov    %r13,%rdx
    2629:	48 89 d9             	mov    %rbx,%rcx
    262c:	e8 ff 04 00 00       	callq  2b30 <_ZNSt3__17__sort3IRPFb8IntervalS1_EPS1_EEjT0_S6_S6_T_>
    2631:	89 44 24 0c          	mov    %eax,0xc(%rsp)
    2635:	49 8b 3c 24          	mov    (%r12),%rdi
    2639:	49 8b 74 24 08       	mov    0x8(%r12),%rsi
    263e:	48 8b 55 00          	mov    0x0(%rbp),%rdx
    2642:	4b 8b 4c 34 08       	mov    0x8(%r12,%r14,1),%rcx
    2647:	ff 13                	callq  *(%rbx)
    2649:	84 c0                	test   %al,%al
    264b:	0f 85 00 03 00 00    	jne    2951 <_ZNSt3__16__sortIRPFb8IntervalS1_EPS1_EEvT0_S6_T_+0x431>
    2651:	4d 01 e6             	add    %r12,%r14
    2654:	49 83 c6 08          	add    $0x8,%r14
    2658:	48 8b 5c 24 38       	mov    0x38(%rsp),%rbx
    265d:	0f 1f 00             	nopl   (%rax)
    2660:	49 39 dc             	cmp    %rbx,%r12
    2663:	74 2b                	je     2690 <_ZNSt3__16__sortIRPFb8IntervalS1_EPS1_EEvT0_S6_T_+0x170>
    2665:	48 8b 3b             	mov    (%rbx),%rdi
    2668:	48 8b 73 08          	mov    0x8(%rbx),%rsi
    266c:	48 8b 55 00          	mov    0x0(%rbp),%rdx
    2670:	49 8b 0e             	mov    (%r14),%rcx
    2673:	48 8b 44 24 18       	mov    0x18(%rsp),%rax
    2678:	ff 10                	callq  *(%rax)
    267a:	48 83 c3 f0          	add    $0xfffffffffffffff0,%rbx
    267e:	84 c0                	test   %al,%al
    2680:	74 de                	je     2660 <_ZNSt3__16__sortIRPFb8IntervalS1_EPS1_EEvT0_S6_T_+0x140>
    2682:	e9 39 01 00 00       	jmpq   27c0 <_ZNSt3__16__sortIRPFb8IntervalS1_EPS1_EEvT0_S6_T_+0x2a0>
    2687:	66 0f 1f 84 00 00 00 	nopw   0x0(%rax,%rax,1)
    268e:	00 00 
    2690:	4d 8d 74 24 10       	lea    0x10(%r12),%r14
    2695:	49 8b 3c 24          	mov    (%r12),%rdi
    2699:	49 8b 74 24 08       	mov    0x8(%r12),%rsi
    269e:	48 8b 04 24          	mov    (%rsp),%rax
    26a2:	48 8b 50 f0          	mov    -0x10(%rax),%rdx
    26a6:	48 8b 48 f8          	mov    -0x8(%rax),%rcx
    26aa:	48 8b 5c 24 18       	mov    0x18(%rsp),%rbx
    26af:	ff 13                	callq  *(%rbx)
    26b1:	84 c0                	test   %al,%al
    26b3:	75 66                	jne    271b <_ZNSt3__16__sortIRPFb8IntervalS1_EPS1_EEvT0_S6_T_+0x1fb>
    26b5:	4d 39 ee             	cmp    %r13,%r14
    26b8:	0f 84 de 03 00 00    	je     2a9c <_ZNSt3__16__sortIRPFb8IntervalS1_EPS1_EEvT0_S6_T_+0x57c>
    26be:	4d 8d 74 24 20       	lea    0x20(%r12),%r14
    26c3:	66 2e 0f 1f 84 00 00 	nopw   %cs:0x0(%rax,%rax,1)
    26ca:	00 00 00 
    26cd:	0f 1f 00             	nopl   (%rax)
    26d0:	49 8b 3c 24          	mov    (%r12),%rdi
    26d4:	49 8b 74 24 08       	mov    0x8(%r12),%rsi
    26d9:	49 8b 56 f0          	mov    -0x10(%r14),%rdx
    26dd:	49 8b 4e f8          	mov    -0x8(%r14),%rcx
    26e1:	ff 13                	callq  *(%rbx)
    26e3:	84 c0                	test   %al,%al
    26e5:	75 16                	jne    26fd <_ZNSt3__16__sortIRPFb8IntervalS1_EPS1_EEvT0_S6_T_+0x1dd>
    26e7:	49 8d 46 f0          	lea    -0x10(%r14),%rax
    26eb:	49 83 c6 10          	add    $0x10,%r14
    26ef:	48 83 c0 10          	add    $0x10,%rax
    26f3:	4c 39 e8             	cmp    %r13,%rax
    26f6:	75 d8                	jne    26d0 <_ZNSt3__16__sortIRPFb8IntervalS1_EPS1_EEvT0_S6_T_+0x1b0>
    26f8:	e9 9f 03 00 00       	jmpq   2a9c <_ZNSt3__16__sortIRPFb8IntervalS1_EPS1_EEvT0_S6_T_+0x57c>
    26fd:	41 0f 10 46 f0       	movups -0x10(%r14),%xmm0
    2702:	0f 29 44 24 20       	movaps %xmm0,0x20(%rsp)
    2707:	41 0f 10 45 00       	movups 0x0(%r13),%xmm0
    270c:	41 0f 11 46 f0       	movups %xmm0,-0x10(%r14)
    2711:	0f 28 44 24 20       	movaps 0x20(%rsp),%xmm0
    2716:	41 0f 11 45 00       	movups %xmm0,0x0(%r13)
    271b:	4d 39 ee             	cmp    %r13,%r14
    271e:	0f 84 78 03 00 00    	je     2a9c <_ZNSt3__16__sortIRPFb8IntervalS1_EPS1_EEvT0_S6_T_+0x57c>
    2724:	4c 89 ed             	mov    %r13,%rbp
    2727:	eb 1f                	jmp    2748 <_ZNSt3__16__sortIRPFb8IntervalS1_EPS1_EEvT0_S6_T_+0x228>
    2729:	0f 1f 80 00 00 00 00 	nopl   0x0(%rax)
    2730:	0f 10 03             	movups (%rbx),%xmm0
    2733:	0f 29 44 24 20       	movaps %xmm0,0x20(%rsp)
    2738:	0f 10 45 00          	movups 0x0(%rbp),%xmm0
    273c:	0f 11 03             	movups %xmm0,(%rbx)
    273f:	0f 28 44 24 20       	movaps 0x20(%rsp),%xmm0
    2744:	0f 11 45 00          	movups %xmm0,0x0(%rbp)
    2748:	49 83 c6 f0          	add    $0xfffffffffffffff0,%r14
    274c:	4c 89 f3             	mov    %r14,%rbx
    274f:	4c 8b 6c 24 18       	mov    0x18(%rsp),%r13
    2754:	66 2e 0f 1f 84 00 00 	nopw   %cs:0x0(%rax,%rax,1)
    275b:	00 00 00 
    275e:	66 90                	xchg   %ax,%ax
    2760:	49 8b 3c 24          	mov    (%r12),%rdi
    2764:	49 8b 74 24 08       	mov    0x8(%r12),%rsi
    2769:	48 8b 53 10          	mov    0x10(%rbx),%rdx
    276d:	48 8b 4b 18          	mov    0x18(%rbx),%rcx
    2771:	48 8d 5b 10          	lea    0x10(%rbx),%rbx
    2775:	41 ff 55 00          	callq  *0x0(%r13)
    2779:	84 c0                	test   %al,%al
    277b:	74 e3                	je     2760 <_ZNSt3__16__sortIRPFb8IntervalS1_EPS1_EEvT0_S6_T_+0x240>
    277d:	4c 8d 73 10          	lea    0x10(%rbx),%r14
    2781:	66 2e 0f 1f 84 00 00 	nopw   %cs:0x0(%rax,%rax,1)
    2788:	00 00 00 
    278b:	0f 1f 44 00 00       	nopl   0x0(%rax,%rax,1)
    2790:	49 8b 3c 24          	mov    (%r12),%rdi
    2794:	49 8b 74 24 08       	mov    0x8(%r12),%rsi
    2799:	48 8b 55 f0          	mov    -0x10(%rbp),%rdx
    279d:	48 8b 4d f8          	mov    -0x8(%rbp),%rcx
    27a1:	48 8d 6d f0          	lea    -0x10(%rbp),%rbp
    27a5:	41 ff 55 00          	callq  *0x0(%r13)
    27a9:	84 c0                	test   %al,%al
    27ab:	75 e3                	jne    2790 <_ZNSt3__16__sortIRPFb8IntervalS1_EPS1_EEvT0_S6_T_+0x270>
    27ad:	48 39 eb             	cmp    %rbp,%rbx
    27b0:	0f 82 7a ff ff ff    	jb     2730 <_ZNSt3__16__sortIRPFb8IntervalS1_EPS1_EEvT0_S6_T_+0x210>
    27b6:	e9 e5 fd ff ff       	jmpq   25a0 <_ZNSt3__16__sortIRPFb8IntervalS1_EPS1_EEvT0_S6_T_+0x80>
    27bb:	0f 1f 44 00 00       	nopl   0x0(%rax,%rax,1)
    27c0:	41 0f 10 04 24       	movups (%r12),%xmm0
    27c5:	0f 29 44 24 20       	movaps %xmm0,0x20(%rsp)
    27ca:	0f 10 43 10          	movups 0x10(%rbx),%xmm0
    27ce:	41 0f 11 04 24       	movups %xmm0,(%r12)
    27d3:	0f 28 44 24 20       	movaps 0x20(%rsp),%xmm0
    27d8:	0f 11 43 10          	movups %xmm0,0x10(%rbx)
    27dc:	4c 8d 73 10          	lea    0x10(%rbx),%r14
    27e0:	83 44 24 0c 01       	addl   $0x1,0xc(%rsp)
    27e5:	48 8b 5c 24 18       	mov    0x18(%rsp),%rbx
    27ea:	49 8d 44 24 10       	lea    0x10(%r12),%rax
    27ef:	48 89 44 24 10       	mov    %rax,0x10(%rsp)
    27f4:	4c 39 f0             	cmp    %r14,%rax
    27f7:	72 3f                	jb     2838 <_ZNSt3__16__sortIRPFb8IntervalS1_EPS1_EEvT0_S6_T_+0x318>
    27f9:	4c 8b 74 24 10       	mov    0x10(%rsp),%r14
    27fe:	49 39 ee             	cmp    %rbp,%r14
    2801:	0f 85 a9 00 00 00    	jne    28b0 <_ZNSt3__16__sortIRPFb8IntervalS1_EPS1_EEvT0_S6_T_+0x390>
    2807:	e9 e4 00 00 00       	jmpq   28f0 <_ZNSt3__16__sortIRPFb8IntervalS1_EPS1_EEvT0_S6_T_+0x3d0>
    280c:	0f 1f 40 00          	nopl   0x0(%rax)
    2810:	41 0f 10 45 00       	movups 0x0(%r13),%xmm0
    2815:	0f 29 44 24 20       	movaps %xmm0,0x20(%rsp)
    281a:	41 0f 10 06          	movups (%r14),%xmm0
    281e:	41 0f 11 45 00       	movups %xmm0,0x0(%r13)
    2823:	0f 28 44 24 20       	movaps 0x20(%rsp),%xmm0
    2828:	41 0f 11 06          	movups %xmm0,(%r14)
    282c:	83 44 24 0c 01       	addl   $0x1,0xc(%rsp)
    2831:	4c 39 ed             	cmp    %r13,%rbp
    2834:	49 0f 44 ee          	cmove  %r14,%rbp
    2838:	4c 8b 6c 24 10       	mov    0x10(%rsp),%r13
    283d:	49 83 c5 f0          	add    $0xfffffffffffffff0,%r13
    2841:	66 2e 0f 1f 84 00 00 	nopw   %cs:0x0(%rax,%rax,1)
    2848:	00 00 00 
    284b:	0f 1f 44 00 00       	nopl   0x0(%rax,%rax,1)
    2850:	49 8b 7d 10          	mov    0x10(%r13),%rdi
    2854:	49 8b 75 18          	mov    0x18(%r13),%rsi
    2858:	4d 8d 6d 10          	lea    0x10(%r13),%r13
    285c:	48 8b 55 00          	mov    0x0(%rbp),%rdx
    2860:	48 8b 4d 08          	mov    0x8(%rbp),%rcx
    2864:	ff 13                	callq  *(%rbx)
    2866:	84 c0                	test   %al,%al
    2868:	75 e6                	jne    2850 <_ZNSt3__16__sortIRPFb8IntervalS1_EPS1_EEvT0_S6_T_+0x330>
    286a:	49 8d 45 10          	lea    0x10(%r13),%rax
    286e:	48 89 44 24 10       	mov    %rax,0x10(%rsp)
    2873:	66 2e 0f 1f 84 00 00 	nopw   %cs:0x0(%rax,%rax,1)
    287a:	00 00 00 
    287d:	0f 1f 00             	nopl   (%rax)
    2880:	49 8b 7e f0          	mov    -0x10(%r14),%rdi
    2884:	49 8b 76 f8          	mov    -0x8(%r14),%rsi
    2888:	4d 8d 76 f0          	lea    -0x10(%r14),%r14
    288c:	48 8b 55 00          	mov    0x0(%rbp),%rdx
    2890:	48 8b 4d 08          	mov    0x8(%rbp),%rcx
    2894:	ff 13                	callq  *(%rbx)
    2896:	84 c0                	test   %al,%al
    2898:	74 e6                	je     2880 <_ZNSt3__16__sortIRPFb8IntervalS1_EPS1_EEvT0_S6_T_+0x360>
    289a:	4d 39 f5             	cmp    %r14,%r13
    289d:	0f 86 6d ff ff ff    	jbe    2810 <_ZNSt3__16__sortIRPFb8IntervalS1_EPS1_EEvT0_S6_T_+0x2f0>
    28a3:	4d 89 ee             	mov    %r13,%r14
    28a6:	4c 8b 6c 24 30       	mov    0x30(%rsp),%r13
    28ab:	49 39 ee             	cmp    %rbp,%r14
    28ae:	74 40                	je     28f0 <_ZNSt3__16__sortIRPFb8IntervalS1_EPS1_EEvT0_S6_T_+0x3d0>
    28b0:	48 8b 7d 00          	mov    0x0(%rbp),%rdi
    28b4:	48 8b 75 08          	mov    0x8(%rbp),%rsi
    28b8:	49 8b 16             	mov    (%r14),%rdx
    28bb:	49 8b 4e 08          	mov    0x8(%r14),%rcx
    28bf:	ff 13                	callq  *(%rbx)
    28c1:	84 c0                	test   %al,%al
    28c3:	74 2b                	je     28f0 <_ZNSt3__16__sortIRPFb8IntervalS1_EPS1_EEvT0_S6_T_+0x3d0>
    28c5:	41 0f 10 06          	movups (%r14),%xmm0
    28c9:	0f 29 44 24 20       	movaps %xmm0,0x20(%rsp)
    28ce:	0f 10 45 00          	movups 0x0(%rbp),%xmm0
    28d2:	41 0f 11 06          	movups %xmm0,(%r14)
    28d6:	0f 28 44 24 20       	movaps 0x20(%rsp),%xmm0
    28db:	0f 11 45 00          	movups %xmm0,0x0(%rbp)
    28df:	8b 44 24 0c          	mov    0xc(%rsp),%eax
    28e3:	83 c0 01             	add    $0x1,%eax
    28e6:	85 c0                	test   %eax,%eax
    28e8:	75 4c                	jne    2936 <_ZNSt3__16__sortIRPFb8IntervalS1_EPS1_EEvT0_S6_T_+0x416>
    28ea:	eb 0c                	jmp    28f8 <_ZNSt3__16__sortIRPFb8IntervalS1_EPS1_EEvT0_S6_T_+0x3d8>
    28ec:	0f 1f 40 00          	nopl   0x0(%rax)
    28f0:	8b 44 24 0c          	mov    0xc(%rsp),%eax
    28f4:	85 c0                	test   %eax,%eax
    28f6:	75 3e                	jne    2936 <_ZNSt3__16__sortIRPFb8IntervalS1_EPS1_EEvT0_S6_T_+0x416>
    28f8:	4c 89 e7             	mov    %r12,%rdi
    28fb:	4c 89 f6             	mov    %r14,%rsi
    28fe:	48 89 da             	mov    %rbx,%rdx
    2901:	e8 7a 05 00 00       	callq  2e80 <_ZNSt3__127__insertion_sort_incompleteIRPFb8IntervalS1_EPS1_EEbT0_S6_T_>
    2906:	4c 89 f1             	mov    %r14,%rcx
    2909:	41 89 c6             	mov    %eax,%r14d
    290c:	48 89 4c 24 10       	mov    %rcx,0x10(%rsp)
    2911:	48 8d 69 10          	lea    0x10(%rcx),%rbp
    2915:	48 89 ef             	mov    %rbp,%rdi
    2918:	48 8b 34 24          	mov    (%rsp),%rsi
    291c:	48 89 da             	mov    %rbx,%rdx
    291f:	e8 5c 05 00 00       	callq  2e80 <_ZNSt3__127__insertion_sort_incompleteIRPFb8IntervalS1_EPS1_EEbT0_S6_T_>
    2924:	84 c0                	test   %al,%al
    2926:	75 31                	jne    2959 <_ZNSt3__16__sortIRPFb8IntervalS1_EPS1_EEvT0_S6_T_+0x439>
    2928:	45 84 f6             	test   %r14b,%r14b
    292b:	4c 8b 74 24 10       	mov    0x10(%rsp),%r14
    2930:	0f 85 5f fc ff ff    	jne    2595 <_ZNSt3__16__sortIRPFb8IntervalS1_EPS1_EEvT0_S6_T_+0x75>
    2936:	4c 89 f0             	mov    %r14,%rax
    2939:	4c 29 e0             	sub    %r12,%rax
    293c:	48 8b 0c 24          	mov    (%rsp),%rcx
    2940:	4c 29 f1             	sub    %r14,%rcx
    2943:	48 39 c8             	cmp    %rcx,%rax
    2946:	0f 8c 34 fc ff ff    	jl     2580 <_ZNSt3__16__sortIRPFb8IntervalS1_EPS1_EEvT0_S6_T_+0x60>
    294c:	e9 ec fb ff ff       	jmpq   253d <_ZNSt3__16__sortIRPFb8IntervalS1_EPS1_EEvT0_S6_T_+0x1d>
    2951:	4d 89 ee             	mov    %r13,%r14
    2954:	e9 91 fe ff ff       	jmpq   27ea <_ZNSt3__16__sortIRPFb8IntervalS1_EPS1_EEvT0_S6_T_+0x2ca>
    2959:	48 8b 44 24 10       	mov    0x10(%rsp),%rax
    295e:	48 89 04 24          	mov    %rax,(%rsp)
    2962:	45 84 f6             	test   %r14b,%r14b
    2965:	0f 84 f5 fb ff ff    	je     2560 <_ZNSt3__16__sortIRPFb8IntervalS1_EPS1_EEvT0_S6_T_+0x40>
    296b:	e9 2c 01 00 00       	jmpq   2a9c <_ZNSt3__16__sortIRPFb8IntervalS1_EPS1_EEvT0_S6_T_+0x57c>
    2970:	48 8d 0d 49 ea 01 00 	lea    0x1ea49(%rip),%rcx        # 213c0 <g_dyn_entry_table+0x20>
    2977:	48 63 04 81          	movslq (%rcx,%rax,4),%rax
    297b:	48 01 c8             	add    %rcx,%rax
    297e:	ff e0                	jmpq   *%rax
    2980:	48 8b 04 24          	mov    (%rsp),%rax
    2984:	48 8b 78 f0          	mov    -0x10(%rax),%rdi
    2988:	48 8b 70 f8          	mov    -0x8(%rax),%rsi
    298c:	49 8b 14 24          	mov    (%r12),%rdx
    2990:	49 8b 4c 24 08       	mov    0x8(%r12),%rcx
    2995:	ff 13                	callq  *(%rbx)
    2997:	84 c0                	test   %al,%al
    2999:	0f 84 fd 00 00 00    	je     2a9c <_ZNSt3__16__sortIRPFb8IntervalS1_EPS1_EEvT0_S6_T_+0x57c>
    299f:	41 0f 10 04 24       	movups (%r12),%xmm0
    29a4:	0f 29 44 24 20       	movaps %xmm0,0x20(%rsp)
    29a9:	48 8b 04 24          	mov    (%rsp),%rax
    29ad:	0f 10 40 f0          	movups -0x10(%rax),%xmm0
    29b1:	41 0f 11 04 24       	movups %xmm0,(%r12)
    29b6:	0f 28 44 24 20       	movaps 0x20(%rsp),%xmm0
    29bb:	0f 11 40 f0          	movups %xmm0,-0x10(%rax)
    29bf:	e9 d8 00 00 00       	jmpq   2a9c <_ZNSt3__16__sortIRPFb8IntervalS1_EPS1_EEvT0_S6_T_+0x57c>
    29c4:	49 8d 6c 24 20       	lea    0x20(%r12),%rbp
    29c9:	49 8d 74 24 10       	lea    0x10(%r12),%rsi
    29ce:	4c 89 e7             	mov    %r12,%rdi
    29d1:	48 89 ea             	mov    %rbp,%rdx
    29d4:	48 89 d9             	mov    %rbx,%rcx
    29d7:	e8 54 01 00 00       	callq  2b30 <_ZNSt3__17__sort3IRPFb8IntervalS1_EPS1_EEjT0_S6_S6_T_>
    29dc:	4d 8d 6c 24 30       	lea    0x30(%r12),%r13
    29e1:	4c 3b 2c 24          	cmp    (%rsp),%r13
    29e5:	0f 84 b1 00 00 00    	je     2a9c <_ZNSt3__16__sortIRPFb8IntervalS1_EPS1_EEvT0_S6_T_+0x57c>
    29eb:	41 be 30 00 00 00    	mov    $0x30,%r14d
    29f1:	66 2e 0f 1f 84 00 00 	nopw   %cs:0x0(%rax,%rax,1)
    29f8:	00 00 00 
    29fb:	0f 1f 44 00 00       	nopl   0x0(%rax,%rax,1)
    2a00:	49 8b 7d 00          	mov    0x0(%r13),%rdi
    2a04:	49 8b 75 08          	mov    0x8(%r13),%rsi
    2a08:	48 8b 55 00          	mov    0x0(%rbp),%rdx
    2a0c:	48 8b 4d 08          	mov    0x8(%rbp),%rcx
    2a10:	ff 13                	callq  *(%rbx)
    2a12:	84 c0                	test   %al,%al
    2a14:	74 6e                	je     2a84 <_ZNSt3__16__sortIRPFb8IntervalS1_EPS1_EEvT0_S6_T_+0x564>
    2a16:	49 8b 6d 00          	mov    0x0(%r13),%rbp
    2a1a:	4c 89 f3             	mov    %r14,%rbx
    2a1d:	4d 8b 75 08          	mov    0x8(%r13),%r14
    2a21:	48 89 5c 24 10       	mov    %rbx,0x10(%rsp)
    2a26:	66 2e 0f 1f 84 00 00 	nopw   %cs:0x0(%rax,%rax,1)
    2a2d:	00 00 00 
    2a30:	41 0f 10 44 1c f0    	movups -0x10(%r12,%rbx,1),%xmm0
    2a36:	41 0f 11 04 1c       	movups %xmm0,(%r12,%rbx,1)
    2a3b:	48 83 fb 10          	cmp    $0x10,%rbx
    2a3f:	74 2f                	je     2a70 <_ZNSt3__16__sortIRPFb8IntervalS1_EPS1_EEvT0_S6_T_+0x550>
    2a41:	49 8b 54 1c e0       	mov    -0x20(%r12,%rbx,1),%rdx
    2a46:	49 8b 4c 1c e8       	mov    -0x18(%r12,%rbx,1),%rcx
    2a4b:	48 89 ef             	mov    %rbp,%rdi
    2a4e:	4c 89 f6             	mov    %r14,%rsi
    2a51:	48 8b 44 24 18       	mov    0x18(%rsp),%rax
    2a56:	ff 10                	callq  *(%rax)
    2a58:	48 83 c3 f0          	add    $0xfffffffffffffff0,%rbx
    2a5c:	84 c0                	test   %al,%al
    2a5e:	75 d0                	jne    2a30 <_ZNSt3__16__sortIRPFb8IntervalS1_EPS1_EEvT0_S6_T_+0x510>
    2a60:	4c 01 e3             	add    %r12,%rbx
    2a63:	eb 0e                	jmp    2a73 <_ZNSt3__16__sortIRPFb8IntervalS1_EPS1_EEvT0_S6_T_+0x553>
    2a65:	66 2e 0f 1f 84 00 00 	nopw   %cs:0x0(%rax,%rax,1)
    2a6c:	00 00 00 
    2a6f:	90                   	nop
    2a70:	4c 89 e3             	mov    %r12,%rbx
    2a73:	48 89 2b             	mov    %rbp,(%rbx)
    2a76:	4c 89 73 08          	mov    %r14,0x8(%rbx)
    2a7a:	48 8b 5c 24 18       	mov    0x18(%rsp),%rbx
    2a7f:	4c 8b 74 24 10       	mov    0x10(%rsp),%r14
    2a84:	4c 89 ed             	mov    %r13,%rbp
    2a87:	49 8d 45 10          	lea    0x10(%r13),%rax
    2a8b:	49 83 c6 10          	add    $0x10,%r14
    2a8f:	49 89 c5             	mov    %rax,%r13
    2a92:	48 3b 04 24          	cmp    (%rsp),%rax
    2a96:	0f 85 64 ff ff ff    	jne    2a00 <_ZNSt3__16__sortIRPFb8IntervalS1_EPS1_EEvT0_S6_T_+0x4e0>
    2a9c:	48 83 c4 40          	add    $0x40,%rsp
    2aa0:	5b                   	pop    %rbx
    2aa1:	41 5c                	pop    %r12
    2aa3:	41 5d                	pop    %r13
    2aa5:	41 5e                	pop    %r14
    2aa7:	5d                   	pop    %rbp
    2aa8:	c3                   	retq   
    2aa9:	49 8d 74 24 10       	lea    0x10(%r12),%rsi
    2aae:	48 8b 14 24          	mov    (%rsp),%rdx
    2ab2:	48 83 c2 f0          	add    $0xfffffffffffffff0,%rdx
    2ab6:	4c 89 e7             	mov    %r12,%rdi
    2ab9:	48 89 d9             	mov    %rbx,%rcx
    2abc:	48 83 c4 40          	add    $0x40,%rsp
    2ac0:	5b                   	pop    %rbx
    2ac1:	41 5c                	pop    %r12
    2ac3:	41 5d                	pop    %r13
    2ac5:	41 5e                	pop    %r14
    2ac7:	5d                   	pop    %rbp
    2ac8:	e9 63 00 00 00       	jmpq   2b30 <_ZNSt3__17__sort3IRPFb8IntervalS1_EPS1_EEjT0_S6_S6_T_>
    2acd:	49 8d 74 24 10       	lea    0x10(%r12),%rsi
    2ad2:	49 8d 54 24 20       	lea    0x20(%r12),%rdx
    2ad7:	48 8b 0c 24          	mov    (%rsp),%rcx
    2adb:	48 83 c1 f0          	add    $0xfffffffffffffff0,%rcx
    2adf:	4c 89 e7             	mov    %r12,%rdi
    2ae2:	49 89 d8             	mov    %rbx,%r8
    2ae5:	48 83 c4 40          	add    $0x40,%rsp
    2ae9:	5b                   	pop    %rbx
    2aea:	41 5c                	pop    %r12
    2aec:	41 5d                	pop    %r13
    2aee:	41 5e                	pop    %r14
    2af0:	5d                   	pop    %rbp
    2af1:	e9 6a 01 00 00       	jmpq   2c60 <_ZNSt3__17__sort4IRPFb8IntervalS1_EPS1_EEjT0_S6_S6_S6_T_>
    2af6:	49 8d 54 24 20       	lea    0x20(%r12),%rdx
    2afb:	49 8d 4c 24 30       	lea    0x30(%r12),%rcx
    2b00:	4c 8b 04 24          	mov    (%rsp),%r8
    2b04:	49 83 c0 f0          	add    $0xfffffffffffffff0,%r8
    2b08:	49 8d 74 24 10       	lea    0x10(%r12),%rsi
    2b0d:	4c 89 e7             	mov    %r12,%rdi
    2b10:	49 89 d9             	mov    %rbx,%r9
    2b13:	48 83 c4 40          	add    $0x40,%rsp
    2b17:	5b                   	pop    %rbx
    2b18:	41 5c                	pop    %r12
    2b1a:	41 5d                	pop    %r13
    2b1c:	41 5e                	pop    %r14
    2b1e:	5d                   	pop    %rbp
    2b1f:	e9 2c 02 00 00       	jmpq   2d50 <_ZNSt3__17__sort5IRPFb8IntervalS1_EPS1_EEjT0_S6_S6_S6_S6_T_>
    2b24:	66 2e 0f 1f 84 00 00 	nopw   %cs:0x0(%rax,%rax,1)
    2b2b:	00 00 00 
    2b2e:	66 90                	xchg   %ax,%ax

0000000000002b30 <_ZNSt3__17__sort3IRPFb8IntervalS1_EPS1_EEjT0_S6_S6_T_>:
    2b30:	55                   	push   %rbp
    2b31:	41 56                	push   %r14
    2b33:	41 55                	push   %r13
    2b35:	41 54                	push   %r12
    2b37:	53                   	push   %rbx
    2b38:	48 83 ec 10          	sub    $0x10,%rsp
    2b3c:	49 89 cd             	mov    %rcx,%r13
    2b3f:	49 89 d6             	mov    %rdx,%r14
    2b42:	48 89 f3             	mov    %rsi,%rbx
    2b45:	49 89 fc             	mov    %rdi,%r12
    2b48:	48 8b 3e             	mov    (%rsi),%rdi
    2b4b:	48 8b 76 08          	mov    0x8(%rsi),%rsi
    2b4f:	49 8b 14 24          	mov    (%r12),%rdx
    2b53:	49 8b 4c 24 08       	mov    0x8(%r12),%rcx
    2b58:	41 ff 55 00          	callq  *0x0(%r13)
    2b5c:	89 c5                	mov    %eax,%ebp
    2b5e:	49 8b 3e             	mov    (%r14),%rdi
    2b61:	49 8b 76 08          	mov    0x8(%r14),%rsi
    2b65:	48 8b 13             	mov    (%rbx),%rdx
    2b68:	48 8b 4b 08          	mov    0x8(%rbx),%rcx
    2b6c:	41 ff 55 00          	callq  *0x0(%r13)
    2b70:	89 c1                	mov    %eax,%ecx
    2b72:	40 84 ed             	test   %bpl,%bpl
    2b75:	74 28                	je     2b9f <_ZNSt3__17__sort3IRPFb8IntervalS1_EPS1_EEjT0_S6_S6_T_+0x6f>
    2b77:	84 c9                	test   %cl,%cl
    2b79:	74 7d                	je     2bf8 <_ZNSt3__17__sort3IRPFb8IntervalS1_EPS1_EEjT0_S6_S6_T_+0xc8>
    2b7b:	41 0f 10 04 24       	movups (%r12),%xmm0
    2b80:	0f 29 04 24          	movaps %xmm0,(%rsp)
    2b84:	41 0f 10 06          	movups (%r14),%xmm0
    2b88:	41 0f 11 04 24       	movups %xmm0,(%r12)
    2b8d:	0f 28 04 24          	movaps (%rsp),%xmm0
    2b91:	41 0f 11 06          	movups %xmm0,(%r14)
    2b95:	b8 01 00 00 00       	mov    $0x1,%eax
    2b9a:	e9 a9 00 00 00       	jmpq   2c48 <_ZNSt3__17__sort3IRPFb8IntervalS1_EPS1_EEjT0_S6_S6_T_+0x118>
    2b9f:	31 c0                	xor    %eax,%eax
    2ba1:	84 c9                	test   %cl,%cl
    2ba3:	0f 84 9f 00 00 00    	je     2c48 <_ZNSt3__17__sort3IRPFb8IntervalS1_EPS1_EEjT0_S6_S6_T_+0x118>
    2ba9:	0f 10 03             	movups (%rbx),%xmm0
    2bac:	0f 29 04 24          	movaps %xmm0,(%rsp)
    2bb0:	41 0f 10 06          	movups (%r14),%xmm0
    2bb4:	0f 11 03             	movups %xmm0,(%rbx)
    2bb7:	0f 28 04 24          	movaps (%rsp),%xmm0
    2bbb:	41 0f 11 06          	movups %xmm0,(%r14)
    2bbf:	48 8b 3b             	mov    (%rbx),%rdi
    2bc2:	48 8b 73 08          	mov    0x8(%rbx),%rsi
    2bc6:	49 8b 14 24          	mov    (%r12),%rdx
    2bca:	49 8b 4c 24 08       	mov    0x8(%r12),%rcx
    2bcf:	41 ff 55 00          	callq  *0x0(%r13)
    2bd3:	89 c1                	mov    %eax,%ecx
    2bd5:	b8 01 00 00 00       	mov    $0x1,%eax
    2bda:	84 c9                	test   %cl,%cl
    2bdc:	74 6a                	je     2c48 <_ZNSt3__17__sort3IRPFb8IntervalS1_EPS1_EEjT0_S6_S6_T_+0x118>
    2bde:	41 0f 10 04 24       	movups (%r12),%xmm0
    2be3:	0f 29 04 24          	movaps %xmm0,(%rsp)
    2be7:	0f 10 03             	movups (%rbx),%xmm0
    2bea:	41 0f 11 04 24       	movups %xmm0,(%r12)
    2bef:	0f 28 04 24          	movaps (%rsp),%xmm0
    2bf3:	0f 11 03             	movups %xmm0,(%rbx)
    2bf6:	eb 4b                	jmp    2c43 <_ZNSt3__17__sort3IRPFb8IntervalS1_EPS1_EEjT0_S6_S6_T_+0x113>
    2bf8:	41 0f 10 04 24       	movups (%r12),%xmm0
    2bfd:	0f 29 04 24          	movaps %xmm0,(%rsp)
    2c01:	0f 10 03             	movups (%rbx),%xmm0
    2c04:	41 0f 11 04 24       	movups %xmm0,(%r12)
    2c09:	0f 28 04 24          	movaps (%rsp),%xmm0
    2c0d:	0f 11 03             	movups %xmm0,(%rbx)
    2c10:	49 8b 3e             	mov    (%r14),%rdi
    2c13:	49 8b 76 08          	mov    0x8(%r14),%rsi
    2c17:	48 8b 13             	mov    (%rbx),%rdx
    2c1a:	48 8b 4b 08          	mov    0x8(%rbx),%rcx
    2c1e:	41 ff 55 00          	callq  *0x0(%r13)
    2c22:	89 c1                	mov    %eax,%ecx
    2c24:	b8 01 00 00 00       	mov    $0x1,%eax
    2c29:	84 c9                	test   %cl,%cl
    2c2b:	74 1b                	je     2c48 <_ZNSt3__17__sort3IRPFb8IntervalS1_EPS1_EEjT0_S6_S6_T_+0x118>
    2c2d:	0f 10 03             	movups (%rbx),%xmm0
    2c30:	0f 29 04 24          	movaps %xmm0,(%rsp)
    2c34:	41 0f 10 06          	movups (%r14),%xmm0
    2c38:	0f 11 03             	movups %xmm0,(%rbx)
    2c3b:	0f 28 04 24          	movaps (%rsp),%xmm0
    2c3f:	41 0f 11 06          	movups %xmm0,(%r14)
    2c43:	b8 02 00 00 00       	mov    $0x2,%eax
    2c48:	48 83 c4 10          	add    $0x10,%rsp
    2c4c:	5b                   	pop    %rbx
    2c4d:	41 5c                	pop    %r12
    2c4f:	41 5d                	pop    %r13
    2c51:	41 5e                	pop    %r14
    2c53:	5d                   	pop    %rbp
    2c54:	c3                   	retq   
    2c55:	66 2e 0f 1f 84 00 00 	nopw   %cs:0x0(%rax,%rax,1)
    2c5c:	00 00 00 
    2c5f:	90                   	nop

0000000000002c60 <_ZNSt3__17__sort4IRPFb8IntervalS1_EPS1_EEjT0_S6_S6_S6_T_>:
    2c60:	55                   	push   %rbp
    2c61:	41 56                	push   %r14
    2c63:	41 55                	push   %r13
    2c65:	41 54                	push   %r12
    2c67:	53                   	push   %rbx
    2c68:	48 83 ec 20          	sub    $0x20,%rsp
    2c6c:	4c 89 c3             	mov    %r8,%rbx
    2c6f:	49 89 ce             	mov    %rcx,%r14
    2c72:	48 89 d5             	mov    %rdx,%rbp
    2c75:	49 89 fd             	mov    %rdi,%r13
    2c78:	48 89 74 24 10       	mov    %rsi,0x10(%rsp)
    2c7d:	4c 89 c1             	mov    %r8,%rcx
    2c80:	e8 ab fe ff ff       	callq  2b30 <_ZNSt3__17__sort3IRPFb8IntervalS1_EPS1_EEjT0_S6_S6_T_>
    2c85:	41 89 c4             	mov    %eax,%r12d
    2c88:	49 8b 3e             	mov    (%r14),%rdi
    2c8b:	49 8b 76 08          	mov    0x8(%r14),%rsi
    2c8f:	48 8b 55 00          	mov    0x0(%rbp),%rdx
    2c93:	48 8b 4d 08          	mov    0x8(%rbp),%rcx
    2c97:	48 89 5c 24 18       	mov    %rbx,0x18(%rsp)
    2c9c:	ff 13                	callq  *(%rbx)
    2c9e:	84 c0                	test   %al,%al
    2ca0:	0f 84 8c 00 00 00    	je     2d32 <_ZNSt3__17__sort4IRPFb8IntervalS1_EPS1_EEjT0_S6_S6_S6_T_+0xd2>
    2ca6:	0f 10 45 00          	movups 0x0(%rbp),%xmm0
    2caa:	0f 29 04 24          	movaps %xmm0,(%rsp)
    2cae:	41 0f 10 06          	movups (%r14),%xmm0
    2cb2:	0f 11 45 00          	movups %xmm0,0x0(%rbp)
    2cb6:	0f 28 04 24          	movaps (%rsp),%xmm0
    2cba:	41 0f 11 06          	movups %xmm0,(%r14)
    2cbe:	48 8b 7d 00          	mov    0x0(%rbp),%rdi
    2cc2:	48 8b 75 08          	mov    0x8(%rbp),%rsi
    2cc6:	48 8b 5c 24 10       	mov    0x10(%rsp),%rbx
    2ccb:	48 8b 13             	mov    (%rbx),%rdx
    2cce:	48 8b 4b 08          	mov    0x8(%rbx),%rcx
    2cd2:	4c 8b 74 24 18       	mov    0x18(%rsp),%r14
    2cd7:	41 ff 16             	callq  *(%r14)
    2cda:	84 c0                	test   %al,%al
    2cdc:	74 4a                	je     2d28 <_ZNSt3__17__sort4IRPFb8IntervalS1_EPS1_EEjT0_S6_S6_S6_T_+0xc8>
    2cde:	0f 10 03             	movups (%rbx),%xmm0
    2ce1:	0f 29 04 24          	movaps %xmm0,(%rsp)
    2ce5:	0f 10 45 00          	movups 0x0(%rbp),%xmm0
    2ce9:	0f 11 03             	movups %xmm0,(%rbx)
    2cec:	0f 28 04 24          	movaps (%rsp),%xmm0
    2cf0:	0f 11 45 00          	movups %xmm0,0x0(%rbp)
    2cf4:	48 8b 3b             	mov    (%rbx),%rdi
    2cf7:	48 8b 73 08          	mov    0x8(%rbx),%rsi
    2cfb:	49 8b 55 00          	mov    0x0(%r13),%rdx
    2cff:	49 8b 4d 08          	mov    0x8(%r13),%rcx
    2d03:	41 ff 16             	callq  *(%r14)
    2d06:	84 c0                	test   %al,%al
    2d08:	74 24                	je     2d2e <_ZNSt3__17__sort4IRPFb8IntervalS1_EPS1_EEjT0_S6_S6_S6_T_+0xce>
    2d0a:	41 0f 10 45 00       	movups 0x0(%r13),%xmm0
    2d0f:	0f 29 04 24          	movaps %xmm0,(%rsp)
    2d13:	0f 10 03             	movups (%rbx),%xmm0
    2d16:	41 0f 11 45 00       	movups %xmm0,0x0(%r13)
    2d1b:	0f 28 04 24          	movaps (%rsp),%xmm0
    2d1f:	0f 11 03             	movups %xmm0,(%rbx)
    2d22:	41 83 c4 03          	add    $0x3,%r12d
    2d26:	eb 0a                	jmp    2d32 <_ZNSt3__17__sort4IRPFb8IntervalS1_EPS1_EEjT0_S6_S6_S6_T_+0xd2>
    2d28:	41 83 c4 01          	add    $0x1,%r12d
    2d2c:	eb 04                	jmp    2d32 <_ZNSt3__17__sort4IRPFb8IntervalS1_EPS1_EEjT0_S6_S6_S6_T_+0xd2>
    2d2e:	41 83 c4 02          	add    $0x2,%r12d
    2d32:	44 89 e0             	mov    %r12d,%eax
    2d35:	48 83 c4 20          	add    $0x20,%rsp
    2d39:	5b                   	pop    %rbx
    2d3a:	41 5c                	pop    %r12
    2d3c:	41 5d                	pop    %r13
    2d3e:	41 5e                	pop    %r14
    2d40:	5d                   	pop    %rbp
    2d41:	c3                   	retq   
    2d42:	66 2e 0f 1f 84 00 00 	nopw   %cs:0x0(%rax,%rax,1)
    2d49:	00 00 00 
    2d4c:	0f 1f 40 00          	nopl   0x0(%rax)

0000000000002d50 <_ZNSt3__17__sort5IRPFb8IntervalS1_EPS1_EEjT0_S6_S6_S6_S6_T_>:
    2d50:	55                   	push   %rbp
    2d51:	41 56                	push   %r14
    2d53:	41 55                	push   %r13
    2d55:	41 54                	push   %r12
    2d57:	53                   	push   %rbx
    2d58:	48 83 ec 30          	sub    $0x30,%rsp
    2d5c:	4c 89 cd             	mov    %r9,%rbp
    2d5f:	4d 89 c4             	mov    %r8,%r12
    2d62:	49 89 ce             	mov    %rcx,%r14
    2d65:	48 89 fb             	mov    %rdi,%rbx
    2d68:	48 89 74 24 20       	mov    %rsi,0x20(%rsp)
    2d6d:	48 89 54 24 18       	mov    %rdx,0x18(%rsp)
    2d72:	4d 89 c8             	mov    %r9,%r8
    2d75:	e8 e6 fe ff ff       	callq  2c60 <_ZNSt3__17__sort4IRPFb8IntervalS1_EPS1_EEjT0_S6_S6_S6_T_>
    2d7a:	41 89 c5             	mov    %eax,%r13d
    2d7d:	49 8b 3c 24          	mov    (%r12),%rdi
    2d81:	49 8b 74 24 08       	mov    0x8(%r12),%rsi
    2d86:	49 8b 16             	mov    (%r14),%rdx
    2d89:	49 8b 4e 08          	mov    0x8(%r14),%rcx
    2d8d:	48 89 6c 24 28       	mov    %rbp,0x28(%rsp)
    2d92:	ff 55 00             	callq  *0x0(%rbp)
    2d95:	84 c0                	test   %al,%al
    2d97:	0f 84 d3 00 00 00    	je     2e70 <_ZNSt3__17__sort5IRPFb8IntervalS1_EPS1_EEjT0_S6_S6_S6_S6_T_+0x120>
    2d9d:	48 8b 6c 24 20       	mov    0x20(%rsp),%rbp
    2da2:	41 0f 10 06          	movups (%r14),%xmm0
    2da6:	0f 29 04 24          	movaps %xmm0,(%rsp)
    2daa:	41 0f 10 04 24       	movups (%r12),%xmm0
    2daf:	41 0f 11 06          	movups %xmm0,(%r14)
    2db3:	0f 28 04 24          	movaps (%rsp),%xmm0
    2db7:	41 0f 11 04 24       	movups %xmm0,(%r12)
    2dbc:	49 8b 3e             	mov    (%r14),%rdi
    2dbf:	49 8b 76 08          	mov    0x8(%r14),%rsi
    2dc3:	48 8b 44 24 18       	mov    0x18(%rsp),%rax
    2dc8:	48 8b 10             	mov    (%rax),%rdx
    2dcb:	48 8b 48 08          	mov    0x8(%rax),%rcx
    2dcf:	4c 8b 64 24 28       	mov    0x28(%rsp),%r12
    2dd4:	41 ff 14 24          	callq  *(%r12)
    2dd8:	84 c0                	test   %al,%al
    2dda:	0f 84 80 00 00 00    	je     2e60 <_ZNSt3__17__sort5IRPFb8IntervalS1_EPS1_EEjT0_S6_S6_S6_S6_T_+0x110>
    2de0:	48 8b 44 24 18       	mov    0x18(%rsp),%rax
    2de5:	0f 10 00             	movups (%rax),%xmm0
    2de8:	0f 29 04 24          	movaps %xmm0,(%rsp)
    2dec:	41 0f 10 06          	movups (%r14),%xmm0
    2df0:	0f 11 00             	movups %xmm0,(%rax)
    2df3:	0f 28 04 24          	movaps (%rsp),%xmm0
    2df7:	41 0f 11 06          	movups %xmm0,(%r14)
    2dfb:	48 8b 38             	mov    (%rax),%rdi
    2dfe:	48 8b 70 08          	mov    0x8(%rax),%rsi
    2e02:	48 8b 55 00          	mov    0x0(%rbp),%rdx
    2e06:	48 8b 4d 08          	mov    0x8(%rbp),%rcx
    2e0a:	41 ff 14 24          	callq  *(%r12)
    2e0e:	84 c0                	test   %al,%al
    2e10:	74 54                	je     2e66 <_ZNSt3__17__sort5IRPFb8IntervalS1_EPS1_EEjT0_S6_S6_S6_S6_T_+0x116>
    2e12:	0f 10 45 00          	movups 0x0(%rbp),%xmm0
    2e16:	0f 29 04 24          	movaps %xmm0,(%rsp)
    2e1a:	48 8b 44 24 18       	mov    0x18(%rsp),%rax
    2e1f:	0f 10 00             	movups (%rax),%xmm0
    2e22:	0f 11 45 00          	movups %xmm0,0x0(%rbp)
    2e26:	0f 28 04 24          	movaps (%rsp),%xmm0
    2e2a:	0f 11 00             	movups %xmm0,(%rax)
    2e2d:	48 8b 7d 00          	mov    0x0(%rbp),%rdi
    2e31:	48 8b 75 08          	mov    0x8(%rbp),%rsi
    2e35:	48 8b 13             	mov    (%rbx),%rdx
    2e38:	48 8b 4b 08          	mov    0x8(%rbx),%rcx
    2e3c:	41 ff 14 24          	callq  *(%r12)
    2e40:	84 c0                	test   %al,%al
    2e42:	74 28                	je     2e6c <_ZNSt3__17__sort5IRPFb8IntervalS1_EPS1_EEjT0_S6_S6_S6_S6_T_+0x11c>
    2e44:	0f 10 03             	movups (%rbx),%xmm0
    2e47:	0f 29 04 24          	movaps %xmm0,(%rsp)
    2e4b:	0f 10 45 00          	movups 0x0(%rbp),%xmm0
    2e4f:	0f 11 03             	movups %xmm0,(%rbx)
    2e52:	0f 28 04 24          	movaps (%rsp),%xmm0
    2e56:	0f 11 45 00          	movups %xmm0,0x0(%rbp)
    2e5a:	41 83 c5 04          	add    $0x4,%r13d
    2e5e:	eb 10                	jmp    2e70 <_ZNSt3__17__sort5IRPFb8IntervalS1_EPS1_EEjT0_S6_S6_S6_S6_T_+0x120>
    2e60:	41 83 c5 01          	add    $0x1,%r13d
    2e64:	eb 0a                	jmp    2e70 <_ZNSt3__17__sort5IRPFb8IntervalS1_EPS1_EEjT0_S6_S6_S6_S6_T_+0x120>
    2e66:	41 83 c5 02          	add    $0x2,%r13d
    2e6a:	eb 04                	jmp    2e70 <_ZNSt3__17__sort5IRPFb8IntervalS1_EPS1_EEjT0_S6_S6_S6_S6_T_+0x120>
    2e6c:	41 83 c5 03          	add    $0x3,%r13d
    2e70:	44 89 e8             	mov    %r13d,%eax
    2e73:	48 83 c4 30          	add    $0x30,%rsp
    2e77:	5b                   	pop    %rbx
    2e78:	41 5c                	pop    %r12
    2e7a:	41 5d                	pop    %r13
    2e7c:	41 5e                	pop    %r14
    2e7e:	5d                   	pop    %rbp
    2e7f:	c3                   	retq   

0000000000002e80 <_ZNSt3__127__insertion_sort_incompleteIRPFb8IntervalS1_EPS1_EEbT0_S6_T_>:
    2e80:	55                   	push   %rbp
    2e81:	41 56                	push   %r14
    2e83:	41 55                	push   %r13
    2e85:	41 54                	push   %r12
    2e87:	53                   	push   %rbx
    2e88:	48 83 ec 30          	sub    $0x30,%rsp
    2e8c:	48 89 14 24          	mov    %rdx,(%rsp)
    2e90:	49 89 f6             	mov    %rsi,%r14
    2e93:	48 89 fb             	mov    %rdi,%rbx
    2e96:	48 89 f0             	mov    %rsi,%rax
    2e99:	48 29 f8             	sub    %rdi,%rax
    2e9c:	48 c1 f8 04          	sar    $0x4,%rax
    2ea0:	40 b5 01             	mov    $0x1,%bpl
    2ea3:	48 83 f8 05          	cmp    $0x5,%rax
    2ea7:	77 4c                	ja     2ef5 <_ZNSt3__127__insertion_sort_incompleteIRPFb8IntervalS1_EPS1_EEbT0_S6_T_+0x75>
    2ea9:	48 8d 0d 28 e5 01 00 	lea    0x1e528(%rip),%rcx        # 213d8 <g_dyn_entry_table+0x38>
    2eb0:	48 63 04 81          	movslq (%rcx,%rax,4),%rax
    2eb4:	48 01 c8             	add    %rcx,%rax
    2eb7:	ff e0                	jmpq   *%rax
    2eb9:	49 8b 7e f0          	mov    -0x10(%r14),%rdi
    2ebd:	49 8b 76 f8          	mov    -0x8(%r14),%rsi
    2ec1:	48 8b 13             	mov    (%rbx),%rdx
    2ec4:	48 8b 4b 08          	mov    0x8(%rbx),%rcx
    2ec8:	48 8b 04 24          	mov    (%rsp),%rax
    2ecc:	ff 10                	callq  *(%rax)
    2ece:	84 c0                	test   %al,%al
    2ed0:	0f 84 61 01 00 00    	je     3037 <_ZNSt3__127__insertion_sort_incompleteIRPFb8IntervalS1_EPS1_EEbT0_S6_T_+0x1b7>
    2ed6:	0f 10 03             	movups (%rbx),%xmm0
    2ed9:	0f 29 44 24 20       	movaps %xmm0,0x20(%rsp)
    2ede:	41 0f 10 46 f0       	movups -0x10(%r14),%xmm0
    2ee3:	0f 11 03             	movups %xmm0,(%rbx)
    2ee6:	0f 28 44 24 20       	movaps 0x20(%rsp),%xmm0
    2eeb:	41 0f 11 46 f0       	movups %xmm0,-0x10(%r14)
    2ef0:	e9 42 01 00 00       	jmpq   3037 <_ZNSt3__127__insertion_sort_incompleteIRPFb8IntervalS1_EPS1_EEbT0_S6_T_+0x1b7>
    2ef5:	48 8d 6b 20          	lea    0x20(%rbx),%rbp
    2ef9:	48 8d 73 10          	lea    0x10(%rbx),%rsi
    2efd:	48 89 df             	mov    %rbx,%rdi
    2f00:	48 89 ea             	mov    %rbp,%rdx
    2f03:	48 8b 0c 24          	mov    (%rsp),%rcx
    2f07:	e8 24 fc ff ff       	callq  2b30 <_ZNSt3__17__sort3IRPFb8IntervalS1_EPS1_EEjT0_S6_S6_T_>
    2f0c:	4c 8d 63 30          	lea    0x30(%rbx),%r12
    2f10:	4d 39 f4             	cmp    %r14,%r12
    2f13:	0f 84 c4 00 00 00    	je     2fdd <_ZNSt3__127__insertion_sort_incompleteIRPFb8IntervalS1_EPS1_EEbT0_S6_T_+0x15d>
    2f19:	45 31 ed             	xor    %r13d,%r13d
    2f1c:	b8 30 00 00 00       	mov    $0x30,%eax
    2f21:	48 89 44 24 10       	mov    %rax,0x10(%rsp)
    2f26:	4c 89 74 24 18       	mov    %r14,0x18(%rsp)
    2f2b:	0f 1f 44 00 00       	nopl   0x0(%rax,%rax,1)
    2f30:	49 8b 3c 24          	mov    (%r12),%rdi
    2f34:	49 8b 74 24 08       	mov    0x8(%r12),%rsi
    2f39:	48 8b 55 00          	mov    0x0(%rbp),%rdx
    2f3d:	48 8b 4d 08          	mov    0x8(%rbp),%rcx
    2f41:	48 8b 04 24          	mov    (%rsp),%rax
    2f45:	ff 10                	callq  *(%rax)
    2f47:	84 c0                	test   %al,%al
    2f49:	74 78                	je     2fc3 <_ZNSt3__127__insertion_sort_incompleteIRPFb8IntervalS1_EPS1_EEbT0_S6_T_+0x143>
    2f4b:	44 89 6c 24 0c       	mov    %r13d,0xc(%rsp)
    2f50:	49 8b 2c 24          	mov    (%r12),%rbp
    2f54:	4d 8b 74 24 08       	mov    0x8(%r12),%r14
    2f59:	4c 8b 6c 24 10       	mov    0x10(%rsp),%r13
    2f5e:	66 90                	xchg   %ax,%ax
    2f60:	42 0f 10 44 2b f0    	movups -0x10(%rbx,%r13,1),%xmm0
    2f66:	42 0f 11 04 2b       	movups %xmm0,(%rbx,%r13,1)
    2f6b:	49 83 fd 10          	cmp    $0x10,%r13
    2f6f:	74 2f                	je     2fa0 <_ZNSt3__127__insertion_sort_incompleteIRPFb8IntervalS1_EPS1_EEbT0_S6_T_+0x120>
    2f71:	4a 8b 54 2b e0       	mov    -0x20(%rbx,%r13,1),%rdx
    2f76:	4a 8b 4c 2b e8       	mov    -0x18(%rbx,%r13,1),%rcx
    2f7b:	48 89 ef             	mov    %rbp,%rdi
    2f7e:	4c 89 f6             	mov    %r14,%rsi
    2f81:	48 8b 04 24          	mov    (%rsp),%rax
    2f85:	ff 10                	callq  *(%rax)
    2f87:	49 83 c5 f0          	add    $0xfffffffffffffff0,%r13
    2f8b:	84 c0                	test   %al,%al
    2f8d:	75 d1                	jne    2f60 <_ZNSt3__127__insertion_sort_incompleteIRPFb8IntervalS1_EPS1_EEbT0_S6_T_+0xe0>
    2f8f:	49 01 dd             	add    %rbx,%r13
    2f92:	eb 0f                	jmp    2fa3 <_ZNSt3__127__insertion_sort_incompleteIRPFb8IntervalS1_EPS1_EEbT0_S6_T_+0x123>
    2f94:	66 2e 0f 1f 84 00 00 	nopw   %cs:0x0(%rax,%rax,1)
    2f9b:	00 00 00 
    2f9e:	66 90                	xchg   %ax,%ax
    2fa0:	49 89 dd             	mov    %rbx,%r13
    2fa3:	49 89 6d 00          	mov    %rbp,0x0(%r13)
    2fa7:	4d 89 75 08          	mov    %r14,0x8(%r13)
    2fab:	44 8b 6c 24 0c       	mov    0xc(%rsp),%r13d
    2fb0:	41 83 c5 01          	add    $0x1,%r13d
    2fb4:	41 83 fd 08          	cmp    $0x8,%r13d
    2fb8:	4c 8b 74 24 18       	mov    0x18(%rsp),%r14
    2fbd:	0f 84 83 00 00 00    	je     3046 <_ZNSt3__127__insertion_sort_incompleteIRPFb8IntervalS1_EPS1_EEbT0_S6_T_+0x1c6>
    2fc3:	4c 89 e5             	mov    %r12,%rbp
    2fc6:	49 8d 44 24 10       	lea    0x10(%r12),%rax
    2fcb:	48 83 44 24 10 10    	addq   $0x10,0x10(%rsp)
    2fd1:	49 89 c4             	mov    %rax,%r12
    2fd4:	4c 39 f0             	cmp    %r14,%rax
    2fd7:	0f 85 53 ff ff ff    	jne    2f30 <_ZNSt3__127__insertion_sort_incompleteIRPFb8IntervalS1_EPS1_EEbT0_S6_T_+0xb0>
    2fdd:	40 b5 01             	mov    $0x1,%bpl
    2fe0:	eb 55                	jmp    3037 <_ZNSt3__127__insertion_sort_incompleteIRPFb8IntervalS1_EPS1_EEbT0_S6_T_+0x1b7>
    2fe2:	48 8d 73 10          	lea    0x10(%rbx),%rsi
    2fe6:	49 83 c6 f0          	add    $0xfffffffffffffff0,%r14
    2fea:	48 89 df             	mov    %rbx,%rdi
    2fed:	4c 89 f2             	mov    %r14,%rdx
    2ff0:	48 8b 0c 24          	mov    (%rsp),%rcx
    2ff4:	e8 37 fb ff ff       	callq  2b30 <_ZNSt3__17__sort3IRPFb8IntervalS1_EPS1_EEjT0_S6_S6_T_>
    2ff9:	eb 3c                	jmp    3037 <_ZNSt3__127__insertion_sort_incompleteIRPFb8IntervalS1_EPS1_EEbT0_S6_T_+0x1b7>
    2ffb:	48 8d 53 20          	lea    0x20(%rbx),%rdx
    2fff:	48 8d 4b 30          	lea    0x30(%rbx),%rcx
    3003:	49 83 c6 f0          	add    $0xfffffffffffffff0,%r14
    3007:	48 8d 73 10          	lea    0x10(%rbx),%rsi
    300b:	48 89 df             	mov    %rbx,%rdi
    300e:	4d 89 f0             	mov    %r14,%r8
    3011:	4c 8b 0c 24          	mov    (%rsp),%r9
    3015:	e8 36 fd ff ff       	callq  2d50 <_ZNSt3__17__sort5IRPFb8IntervalS1_EPS1_EEjT0_S6_S6_S6_S6_T_>
    301a:	eb 1b                	jmp    3037 <_ZNSt3__127__insertion_sort_incompleteIRPFb8IntervalS1_EPS1_EEbT0_S6_T_+0x1b7>
    301c:	48 8d 73 10          	lea    0x10(%rbx),%rsi
    3020:	48 8d 53 20          	lea    0x20(%rbx),%rdx
    3024:	49 83 c6 f0          	add    $0xfffffffffffffff0,%r14
    3028:	48 89 df             	mov    %rbx,%rdi
    302b:	4c 89 f1             	mov    %r14,%rcx
    302e:	4c 8b 04 24          	mov    (%rsp),%r8
    3032:	e8 29 fc ff ff       	callq  2c60 <_ZNSt3__17__sort4IRPFb8IntervalS1_EPS1_EEjT0_S6_S6_S6_T_>
    3037:	89 e8                	mov    %ebp,%eax
    3039:	48 83 c4 30          	add    $0x30,%rsp
    303d:	5b                   	pop    %rbx
    303e:	41 5c                	pop    %r12
    3040:	41 5d                	pop    %r13
    3042:	41 5e                	pop    %r14
    3044:	5d                   	pop    %rbp
    3045:	c3                   	retq   
    3046:	49 83 c4 10          	add    $0x10,%r12
    304a:	4d 39 f4             	cmp    %r14,%r12
    304d:	40 0f 94 c5          	sete   %bpl
    3051:	eb e4                	jmp    3037 <_ZNSt3__127__insertion_sort_incompleteIRPFb8IntervalS1_EPS1_EEbT0_S6_T_+0x1b7>
    3053:	66 2e 0f 1f 84 00 00 	nopw   %cs:0x0(%rax,%rax,1)
    305a:	00 00 00 
    305d:	0f 1f 00             	nopl   (%rax)

0000000000003060 <_ZNSt3__16vectorI8IntervalNS_9allocatorIS1_EEE21__push_back_slow_pathIRKS1_EEvOT_>:
    3060:	55                   	push   %rbp
    3061:	41 56                	push   %r14
    3063:	41 55                	push   %r13
    3065:	41 54                	push   %r12
    3067:	53                   	push   %rbx
    3068:	48 83 ec 10          	sub    $0x10,%rsp
    306c:	48 89 74 24 08       	mov    %rsi,0x8(%rsp)
    3071:	49 89 fd             	mov    %rdi,%r13
    3074:	48 8b 37             	mov    (%rdi),%rsi
    3077:	48 8b 5f 08          	mov    0x8(%rdi),%rbx
    307b:	48 29 f3             	sub    %rsi,%rbx
    307e:	48 c1 fb 04          	sar    $0x4,%rbx
    3082:	48 83 c3 01          	add    $0x1,%rbx
    3086:	48 89 d8             	mov    %rbx,%rax
    3089:	48 c1 e8 3c          	shr    $0x3c,%rax
    308d:	74 0c                	je     309b <_ZNSt3__16vectorI8IntervalNS_9allocatorIS1_EEE21__push_back_slow_pathIRKS1_EEvOT_+0x3b>
    308f:	4c 89 ef             	mov    %r13,%rdi
    3092:	e8 69 69 01 00       	callq  19a00 <_ZNKSt3__120__vector_base_commonILb1EE20__throw_length_errorEv>
    3097:	49 8b 75 00          	mov    0x0(%r13),%rsi
    309b:	48 b8 ff ff ff ff ff 	movabs $0xfffffffffffffff,%rax
    30a2:	ff ff 0f 
    30a5:	4d 8b 65 10          	mov    0x10(%r13),%r12
    30a9:	49 29 f4             	sub    %rsi,%r12
    30ac:	4c 89 e1             	mov    %r12,%rcx
    30af:	48 c1 f9 04          	sar    $0x4,%rcx
    30b3:	48 ba ff ff ff ff ff 	movabs $0x7ffffffffffffff,%rdx
    30ba:	ff ff 07 
    30bd:	48 39 d1             	cmp    %rdx,%rcx
    30c0:	73 55                	jae    3117 <_ZNSt3__16vectorI8IntervalNS_9allocatorIS1_EEE21__push_back_slow_pathIRKS1_EEvOT_+0xb7>
    30c2:	49 c1 fc 03          	sar    $0x3,%r12
    30c6:	49 39 dc             	cmp    %rbx,%r12
    30c9:	4c 0f 42 e3          	cmovb  %rbx,%r12
    30cd:	4d 8b 75 08          	mov    0x8(%r13),%r14
    30d1:	4c 89 f3             	mov    %r14,%rbx
    30d4:	48 29 f3             	sub    %rsi,%rbx
    30d7:	48 c1 fb 04          	sar    $0x4,%rbx
    30db:	4d 85 e4             	test   %r12,%r12
    30de:	0f 84 cc 00 00 00    	je     31b0 <_ZNSt3__16vectorI8IntervalNS_9allocatorIS1_EEE21__push_back_slow_pathIRKS1_EEvOT_+0x150>
    30e4:	48 89 f5             	mov    %rsi,%rbp
    30e7:	49 39 c4             	cmp    %rax,%r12
    30ea:	76 3f                	jbe    312b <_ZNSt3__16vectorI8IntervalNS_9allocatorIS1_EEE21__push_back_slow_pathIRKS1_EEvOT_+0xcb>
    30ec:	bf 08 00 00 00       	mov    $0x8,%edi
    30f1:	e8 2a 54 01 00       	callq  18520 <__cxa_allocate_exception>
    30f6:	48 89 c3             	mov    %rax,%rbx
    30f9:	48 89 c7             	mov    %rax,%rdi
    30fc:	e8 9f 67 01 00       	callq  198a0 <_ZNSt9bad_allocC1Ev>
    3101:	48 8d 35 b0 2b 22 00 	lea    0x222bb0(%rip),%rsi        # 225cb8 <_ZTISt9bad_alloc>
    3108:	48 8d 15 61 67 01 00 	lea    0x16761(%rip),%rdx        # 19870 <_ZNSt10bad_typeidD1Ev>
    310f:	48 89 df             	mov    %rbx,%rdi
    3112:	e8 b9 5b 01 00       	callq  18cd0 <__cxa_throw>
    3117:	4d 8b 75 08          	mov    0x8(%r13),%r14
    311b:	4c 89 f3             	mov    %r14,%rbx
    311e:	48 89 f5             	mov    %rsi,%rbp
    3121:	48 29 f3             	sub    %rsi,%rbx
    3124:	48 c1 fb 04          	sar    $0x4,%rbx
    3128:	49 89 c4             	mov    %rax,%r12
    312b:	4c 89 e7             	mov    %r12,%rdi
    312e:	48 c1 e7 04          	shl    $0x4,%rdi
    3132:	e8 29 68 01 00       	callq  19960 <_Znwm>
    3137:	48 89 ee             	mov    %rbp,%rsi
    313a:	48 c1 e3 04          	shl    $0x4,%rbx
    313e:	48 8d 2c 18          	lea    (%rax,%rbx,1),%rbp
    3142:	49 c1 e4 04          	shl    $0x4,%r12
    3146:	49 01 c4             	add    %rax,%r12
    3149:	48 8b 4c 24 08       	mov    0x8(%rsp),%rcx
    314e:	0f 10 01             	movups (%rcx),%xmm0
    3151:	0f 11 04 18          	movups %xmm0,(%rax,%rbx,1)
    3155:	48 01 d8             	add    %rbx,%rax
    3158:	48 83 c0 10          	add    $0x10,%rax
    315c:	49 29 f6             	sub    %rsi,%r14
    315f:	4c 29 f5             	sub    %r14,%rbp
    3162:	4d 85 f6             	test   %r14,%r14
    3165:	7e 17                	jle    317e <_ZNSt3__16vectorI8IntervalNS_9allocatorIS1_EEE21__push_back_slow_pathIRKS1_EEvOT_+0x11e>
    3167:	48 89 ef             	mov    %rbp,%rdi
    316a:	48 89 f3             	mov    %rsi,%rbx
    316d:	4c 89 f2             	mov    %r14,%rdx
    3170:	49 89 c6             	mov    %rax,%r14
    3173:	e8 c8 5f 00 00       	callq  9140 <memcpy>
    3178:	4c 89 f0             	mov    %r14,%rax
    317b:	48 89 de             	mov    %rbx,%rsi
    317e:	49 89 6d 00          	mov    %rbp,0x0(%r13)
    3182:	49 89 45 08          	mov    %rax,0x8(%r13)
    3186:	4d 89 65 10          	mov    %r12,0x10(%r13)
    318a:	48 85 f6             	test   %rsi,%rsi
    318d:	74 14                	je     31a3 <_ZNSt3__16vectorI8IntervalNS_9allocatorIS1_EEE21__push_back_slow_pathIRKS1_EEvOT_+0x143>
    318f:	48 89 f7             	mov    %rsi,%rdi
    3192:	48 83 c4 10          	add    $0x10,%rsp
    3196:	5b                   	pop    %rbx
    3197:	41 5c                	pop    %r12
    3199:	41 5d                	pop    %r13
    319b:	41 5e                	pop    %r14
    319d:	5d                   	pop    %rbp
    319e:	e9 ad 67 01 00       	jmpq   19950 <_ZdlPv>
    31a3:	48 83 c4 10          	add    $0x10,%rsp
    31a7:	5b                   	pop    %rbx
    31a8:	41 5c                	pop    %r12
    31aa:	41 5d                	pop    %r13
    31ac:	41 5e                	pop    %r14
    31ae:	5d                   	pop    %rbp
    31af:	c3                   	retq   
    31b0:	45 31 e4             	xor    %r12d,%r12d
    31b3:	31 c0                	xor    %eax,%eax
    31b5:	eb 83                	jmp    313a <_ZNSt3__16vectorI8IntervalNS_9allocatorIS1_EEE21__push_back_slow_pathIRKS1_EEvOT_+0xda>
    31b7:	66 0f 1f 84 00 00 00 	nopw   0x0(%rax,%rax,1)
    31be:	00 00 

00000000000031c0 <aesni_hash>:
    31c0:	55                   	push   %rbp
    31c1:	41 56                	push   %r14
    31c3:	41 55                	push   %r13
    31c5:	41 54                	push   %r12
    31c7:	53                   	push   %rbx
    31c8:	48 83 ec 40          	sub    $0x40,%rsp
    31cc:	4c 89 c5             	mov    %r8,%rbp
    31cf:	49 89 ce             	mov    %rcx,%r14
    31d2:	49 89 d5             	mov    %rdx,%r13
    31d5:	49 89 f4             	mov    %rsi,%r12
    31d8:	48 89 fb             	mov    %rdi,%rbx
    31db:	bf f8 00 00 00       	mov    $0xf8,%edi
    31e0:	e8 0b 30 00 00       	callq  61f0 <dlmalloc>
    31e5:	48 85 c0             	test   %rax,%rax
    31e8:	74 11                	je     31fb <aesni_hash+0x3b>
    31ea:	48 89 c1             	mov    %rax,%rcx
    31ed:	48 83 c1 48          	add    $0x48,%rcx
    31f1:	48 83 e1 c0          	and    $0xffffffffffffffc0,%rcx
    31f5:	48 89 41 f8          	mov    %rax,-0x8(%rcx)
    31f9:	eb 02                	jmp    31fd <aesni_hash+0x3d>
    31fb:	31 c9                	xor    %ecx,%ecx
    31fd:	f3 44 0f 6f 45 00    	movdqu 0x0(%rbp),%xmm8
    3203:	66 44 0f 7f 01       	movdqa %xmm8,(%rcx)
    3208:	66 41 0f 3a df c0 01 	aeskeygenassist $0x1,%xmm8,%xmm0
    320f:	66 0f 70 c0 ff       	pshufd $0xff,%xmm0,%xmm0
    3214:	66 41 0f 6f c8       	movdqa %xmm8,%xmm1
    3219:	66 0f 73 f9 04       	pslldq $0x4,%xmm1
    321e:	66 41 0f ef c8       	pxor   %xmm8,%xmm1
    3223:	66 41 0f 6f d0       	movdqa %xmm8,%xmm2
    3228:	66 0f 73 fa 08       	pslldq $0x8,%xmm2
    322d:	66 0f ef d1          	pxor   %xmm1,%xmm2
    3231:	66 45 0f 6f c8       	movdqa %xmm8,%xmm9
    3236:	66 41 0f 73 f9 0c    	pslldq $0xc,%xmm9
    323c:	66 44 0f ef ca       	pxor   %xmm2,%xmm9
    3241:	66 44 0f ef c8       	pxor   %xmm0,%xmm9
    3246:	66 44 0f 7f 49 10    	movdqa %xmm9,0x10(%rcx)
    324c:	66 41 0f 3a df c1 02 	aeskeygenassist $0x2,%xmm9,%xmm0
    3253:	66 0f 70 c0 ff       	pshufd $0xff,%xmm0,%xmm0
    3258:	66 41 0f 6f c9       	movdqa %xmm9,%xmm1
    325d:	66 0f 73 f9 04       	pslldq $0x4,%xmm1
    3262:	66 41 0f 6f d1       	movdqa %xmm9,%xmm2
    3267:	66 0f 73 fa 08       	pslldq $0x8,%xmm2
    326c:	66 41 0f 6f d9       	movdqa %xmm9,%xmm3
    3271:	66 0f 73 fb 0c       	pslldq $0xc,%xmm3
    3276:	66 41 0f ef c9       	pxor   %xmm9,%xmm1
    327b:	66 0f ef ca          	pxor   %xmm2,%xmm1
    327f:	66 0f ef cb          	pxor   %xmm3,%xmm1
    3283:	66 0f ef c8          	pxor   %xmm0,%xmm1
    3287:	66 0f 7f 49 20       	movdqa %xmm1,0x20(%rcx)
    328c:	66 0f 3a df c1 04    	aeskeygenassist $0x4,%xmm1,%xmm0
    3292:	66 0f 70 c0 ff       	pshufd $0xff,%xmm0,%xmm0
    3297:	66 0f 6f d1          	movdqa %xmm1,%xmm2
    329b:	66 0f 73 fa 04       	pslldq $0x4,%xmm2
    32a0:	66 0f 6f d9          	movdqa %xmm1,%xmm3
    32a4:	66 0f ef d1          	pxor   %xmm1,%xmm2
    32a8:	66 0f 73 f9 08       	pslldq $0x8,%xmm1
    32ad:	66 0f 73 fb 0c       	pslldq $0xc,%xmm3
    32b2:	66 0f ef d1          	pxor   %xmm1,%xmm2
    32b6:	66 0f ef d3          	pxor   %xmm3,%xmm2
    32ba:	66 0f ef d0          	pxor   %xmm0,%xmm2
    32be:	66 0f 7f 51 30       	movdqa %xmm2,0x30(%rcx)
    32c3:	66 0f 3a df c2 08    	aeskeygenassist $0x8,%xmm2,%xmm0
    32c9:	66 0f 70 c0 ff       	pshufd $0xff,%xmm0,%xmm0
    32ce:	66 0f 6f ca          	movdqa %xmm2,%xmm1
    32d2:	66 0f 73 f9 04       	pslldq $0x4,%xmm1
    32d7:	66 0f 6f da          	movdqa %xmm2,%xmm3
    32db:	66 0f ef ca          	pxor   %xmm2,%xmm1
    32df:	66 0f 73 fa 08       	pslldq $0x8,%xmm2
    32e4:	66 0f 73 fb 0c       	pslldq $0xc,%xmm3
    32e9:	66 0f ef ca          	pxor   %xmm2,%xmm1
    32ed:	66 0f ef cb          	pxor   %xmm3,%xmm1
    32f1:	66 0f ef c8          	pxor   %xmm0,%xmm1
    32f5:	66 0f 7f 49 40       	movdqa %xmm1,0x40(%rcx)
    32fa:	66 0f 3a df c1 10    	aeskeygenassist $0x10,%xmm1,%xmm0
    3300:	66 0f 70 c0 ff       	pshufd $0xff,%xmm0,%xmm0
    3305:	66 0f 6f d1          	movdqa %xmm1,%xmm2
    3309:	66 0f 73 fa 04       	pslldq $0x4,%xmm2
    330e:	66 0f 6f d9          	movdqa %xmm1,%xmm3
    3312:	66 0f ef d1          	pxor   %xmm1,%xmm2
    3316:	66 0f 73 f9 08       	pslldq $0x8,%xmm1
    331b:	66 0f 73 fb 0c       	pslldq $0xc,%xmm3
    3320:	66 0f ef d1          	pxor   %xmm1,%xmm2
    3324:	66 0f ef d3          	pxor   %xmm3,%xmm2
    3328:	66 0f ef d0          	pxor   %xmm0,%xmm2
    332c:	66 0f 7f 51 50       	movdqa %xmm2,0x50(%rcx)
    3331:	66 0f 3a df c2 20    	aeskeygenassist $0x20,%xmm2,%xmm0
    3337:	66 0f 70 c0 ff       	pshufd $0xff,%xmm0,%xmm0
    333c:	66 0f 6f da          	movdqa %xmm2,%xmm3
    3340:	66 0f 73 fb 04       	pslldq $0x4,%xmm3
    3345:	66 0f 6f ca          	movdqa %xmm2,%xmm1
    3349:	66 0f 73 f9 08       	pslldq $0x8,%xmm1
    334e:	66 0f 6f e2          	movdqa %xmm2,%xmm4
    3352:	66 0f 73 fc 0c       	pslldq $0xc,%xmm4
    3357:	66 0f ef da          	pxor   %xmm2,%xmm3
    335b:	66 0f ef d9          	pxor   %xmm1,%xmm3
    335f:	66 0f ef dc          	pxor   %xmm4,%xmm3
    3363:	66 0f ef d8          	pxor   %xmm0,%xmm3
    3367:	66 0f 7f 59 60       	movdqa %xmm3,0x60(%rcx)
    336c:	66 0f 3a df c3 40    	aeskeygenassist $0x40,%xmm3,%xmm0
    3372:	66 0f 70 c0 ff       	pshufd $0xff,%xmm0,%xmm0
    3377:	66 0f 6f e3          	movdqa %xmm3,%xmm4
    337b:	66 0f 73 fc 04       	pslldq $0x4,%xmm4
    3380:	66 0f 6f cb          	movdqa %xmm3,%xmm1
    3384:	66 0f 73 f9 08       	pslldq $0x8,%xmm1
    3389:	66 0f 6f eb          	movdqa %xmm3,%xmm5
    338d:	66 0f 73 fd 0c       	pslldq $0xc,%xmm5
    3392:	66 0f ef e3          	pxor   %xmm3,%xmm4
    3396:	66 0f ef e1          	pxor   %xmm1,%xmm4
    339a:	66 0f ef e5          	pxor   %xmm5,%xmm4
    339e:	66 0f ef e0          	pxor   %xmm0,%xmm4
    33a2:	66 0f 7f 61 70       	movdqa %xmm4,0x70(%rcx)
    33a7:	66 0f 3a df c4 80    	aeskeygenassist $0x80,%xmm4,%xmm0
    33ad:	66 0f 70 c0 ff       	pshufd $0xff,%xmm0,%xmm0
    33b2:	66 0f 6f ec          	movdqa %xmm4,%xmm5
    33b6:	66 0f 73 fd 04       	pslldq $0x4,%xmm5
    33bb:	66 0f 6f cc          	movdqa %xmm4,%xmm1
    33bf:	66 0f 73 f9 08       	pslldq $0x8,%xmm1
    33c4:	66 0f 6f f4          	movdqa %xmm4,%xmm6
    33c8:	66 0f 73 fe 0c       	pslldq $0xc,%xmm6
    33cd:	66 0f ef ec          	pxor   %xmm4,%xmm5
    33d1:	66 0f ef e9          	pxor   %xmm1,%xmm5
    33d5:	66 0f ef ee          	pxor   %xmm6,%xmm5
    33d9:	66 0f ef e8          	pxor   %xmm0,%xmm5
    33dd:	66 0f 7f a9 80 00 00 	movdqa %xmm5,0x80(%rcx)
    33e4:	00 
    33e5:	66 0f 3a df c5 1b    	aeskeygenassist $0x1b,%xmm5,%xmm0
    33eb:	66 0f 70 c0 ff       	pshufd $0xff,%xmm0,%xmm0
    33f0:	66 0f 6f f5          	movdqa %xmm5,%xmm6
    33f4:	66 0f 73 fe 04       	pslldq $0x4,%xmm6
    33f9:	66 0f 6f cd          	movdqa %xmm5,%xmm1
    33fd:	66 0f 73 f9 08       	pslldq $0x8,%xmm1
    3402:	66 0f 6f fd          	movdqa %xmm5,%xmm7
    3406:	66 0f 73 ff 0c       	pslldq $0xc,%xmm7
    340b:	66 0f ef f5          	pxor   %xmm5,%xmm6
    340f:	66 0f ef f1          	pxor   %xmm1,%xmm6
    3413:	66 0f ef f7          	pxor   %xmm7,%xmm6
    3417:	66 0f ef f0          	pxor   %xmm0,%xmm6
    341b:	66 0f 7f b1 90 00 00 	movdqa %xmm6,0x90(%rcx)
    3422:	00 
    3423:	66 0f 3a df c6 36    	aeskeygenassist $0x36,%xmm6,%xmm0
    3429:	66 44 0f 70 d0 ff    	pshufd $0xff,%xmm0,%xmm10
    342f:	66 0f 6f fe          	movdqa %xmm6,%xmm7
    3433:	66 0f 73 ff 04       	pslldq $0x4,%xmm7
    3438:	66 0f 6f ce          	movdqa %xmm6,%xmm1
    343c:	66 0f 73 f9 08       	pslldq $0x8,%xmm1
    3441:	66 0f 6f c6          	movdqa %xmm6,%xmm0
    3445:	66 0f 73 f8 0c       	pslldq $0xc,%xmm0
    344a:	66 0f ef fe          	pxor   %xmm6,%xmm7
    344e:	66 0f ef f9          	pxor   %xmm1,%xmm7
    3452:	66 0f ef f8          	pxor   %xmm0,%xmm7
    3456:	66 41 0f ef fa       	pxor   %xmm10,%xmm7
    345b:	66 0f 7f b9 a0 00 00 	movdqa %xmm7,0xa0(%rcx)
    3462:	00 
    3463:	4c 89 f0             	mov    %r14,%rax
    3466:	49 c1 ee 04          	shr    $0x4,%r14
    346a:	48 89 c5             	mov    %rax,%rbp
    346d:	48 83 e5 0f          	and    $0xf,%rbp
    3471:	0f 84 1b 01 00 00    	je     3592 <aesni_hash+0x3d2>
    3477:	48 89 4c 24 08       	mov    %rcx,0x8(%rsp)
    347c:	4c 89 64 24 10       	mov    %r12,0x10(%rsp)
    3481:	4c 89 6c 24 28       	mov    %r13,0x28(%rsp)
    3486:	49 89 c5             	mov    %rax,%r13
    3489:	49 83 e5 f0          	and    $0xfffffffffffffff0,%r13
    348d:	49 01 dd             	add    %rbx,%r13
    3490:	41 bc 10 00 00 00    	mov    $0x10,%r12d
    3496:	49 29 ec             	sub    %rbp,%r12
    3499:	48 8d 3c 2c          	lea    (%rsp,%rbp,1),%rdi
    349d:	48 83 c7 30          	add    $0x30,%rdi
    34a1:	48 89 7c 24 18       	mov    %rdi,0x18(%rsp)
    34a6:	48 89 44 24 20       	mov    %rax,0x20(%rsp)
    34ab:	31 f6                	xor    %esi,%esi
    34ad:	4c 89 e2             	mov    %r12,%rdx
    34b0:	e8 eb 61 00 00       	callq  96a0 <memset>
    34b5:	48 8d 7c 24 30       	lea    0x30(%rsp),%rdi
    34ba:	4c 89 ee             	mov    %r13,%rsi
    34bd:	48 89 ea             	mov    %rbp,%rdx
    34c0:	e8 7b 5c 00 00       	callq  9140 <memcpy>
    34c5:	48 8b 7c 24 18       	mov    0x18(%rsp),%rdi
    34ca:	48 8b 74 24 20       	mov    0x20(%rsp),%rsi
    34cf:	4c 89 e2             	mov    %r12,%rdx
    34d2:	e8 c9 61 00 00       	callq  96a0 <memset>
    34d7:	48 8b 44 24 28       	mov    0x28(%rsp),%rax
    34dc:	f3 0f 6f 08          	movdqu (%rax),%xmm1
    34e0:	4d 85 f6             	test   %r14,%r14
    34e3:	0f 84 1f 01 00 00    	je     3608 <aesni_hash+0x448>
    34e9:	48 8b 4c 24 08       	mov    0x8(%rsp),%rcx
    34ee:	66 0f 6f 01          	movdqa (%rcx),%xmm0
    34f2:	66 44 0f 6f 59 10    	movdqa 0x10(%rcx),%xmm11
    34f8:	66 44 0f 6f 51 20    	movdqa 0x20(%rcx),%xmm10
    34fe:	66 44 0f 6f 49 30    	movdqa 0x30(%rcx),%xmm9
    3504:	66 44 0f 6f 41 40    	movdqa 0x40(%rcx),%xmm8
    350a:	66 0f 6f 79 50       	movdqa 0x50(%rcx),%xmm7
    350f:	66 0f 6f 71 60       	movdqa 0x60(%rcx),%xmm6
    3514:	66 0f 6f 69 70       	movdqa 0x70(%rcx),%xmm5
    3519:	66 0f 6f a1 80 00 00 	movdqa 0x80(%rcx),%xmm4
    3520:	00 
    3521:	66 0f 6f 99 90 00 00 	movdqa 0x90(%rcx),%xmm3
    3528:	00 
    3529:	66 44 0f 6f a1 a0 00 	movdqa 0xa0(%rcx),%xmm12
    3530:	00 00 
    3532:	48 8b 44 24 10       	mov    0x10(%rsp),%rax
    3537:	66 0f 1f 84 00 00 00 	nopw   0x0(%rax,%rax,1)
    353e:	00 00 
    3540:	f3 0f 6f 13          	movdqu (%rbx),%xmm2
    3544:	66 0f ef c8          	pxor   %xmm0,%xmm1
    3548:	66 0f ef ca          	pxor   %xmm2,%xmm1
    354c:	66 41 0f 38 dc cb    	aesenc %xmm11,%xmm1
    3552:	66 41 0f 38 dc ca    	aesenc %xmm10,%xmm1
    3558:	66 41 0f 38 dc c9    	aesenc %xmm9,%xmm1
    355e:	66 41 0f 38 dc c8    	aesenc %xmm8,%xmm1
    3564:	66 0f 38 dc cf       	aesenc %xmm7,%xmm1
    3569:	66 0f 38 dc ce       	aesenc %xmm6,%xmm1
    356e:	66 0f 38 dc cd       	aesenc %xmm5,%xmm1
    3573:	66 0f 38 dc cc       	aesenc %xmm4,%xmm1
    3578:	66 0f 38 dc cb       	aesenc %xmm3,%xmm1
    357d:	66 41 0f 38 dd cc    	aesenclast %xmm12,%xmm1
    3583:	48 83 c3 10          	add    $0x10,%rbx
    3587:	49 83 c6 ff          	add    $0xffffffffffffffff,%r14
    358b:	75 b3                	jne    3540 <aesni_hash+0x380>
    358d:	e9 c4 00 00 00       	jmpq   3656 <aesni_hash+0x496>
    3592:	f3 41 0f 6f 45 00    	movdqu 0x0(%r13),%xmm0
    3598:	4d 85 f6             	test   %r14,%r14
    359b:	74 60                	je     35fd <aesni_hash+0x43d>
    359d:	66 44 0f 6f 51 20    	movdqa 0x20(%rcx),%xmm10
    35a3:	66 44 0f 6f 59 30    	movdqa 0x30(%rcx),%xmm11
    35a9:	66 44 0f 6f 61 40    	movdqa 0x40(%rcx),%xmm12
    35af:	90                   	nop
    35b0:	f3 0f 6f 0b          	movdqu (%rbx),%xmm1
    35b4:	66 41 0f ef c0       	pxor   %xmm8,%xmm0
    35b9:	66 0f ef c1          	pxor   %xmm1,%xmm0
    35bd:	66 41 0f 38 dc c1    	aesenc %xmm9,%xmm0
    35c3:	66 41 0f 38 dc c2    	aesenc %xmm10,%xmm0
    35c9:	66 41 0f 38 dc c3    	aesenc %xmm11,%xmm0
    35cf:	66 41 0f 38 dc c4    	aesenc %xmm12,%xmm0
    35d5:	66 0f 38 dc c2       	aesenc %xmm2,%xmm0
    35da:	66 0f 38 dc c3       	aesenc %xmm3,%xmm0
    35df:	66 0f 38 dc c4       	aesenc %xmm4,%xmm0
    35e4:	66 0f 38 dc c5       	aesenc %xmm5,%xmm0
    35e9:	66 0f 38 dc c6       	aesenc %xmm6,%xmm0
    35ee:	66 0f 38 dd c7       	aesenclast %xmm7,%xmm0
    35f3:	48 83 c3 10          	add    $0x10,%rbx
    35f7:	49 83 c6 ff          	add    $0xffffffffffffffff,%r14
    35fb:	75 b3                	jne    35b0 <aesni_hash+0x3f0>
    35fd:	f3 41 0f 7f 04 24    	movdqu %xmm0,(%r12)
    3603:	e9 93 00 00 00       	jmpq   369b <aesni_hash+0x4db>
    3608:	48 8b 4c 24 08       	mov    0x8(%rsp),%rcx
    360d:	66 0f 6f 01          	movdqa (%rcx),%xmm0
    3611:	66 44 0f 6f 59 10    	movdqa 0x10(%rcx),%xmm11
    3617:	66 44 0f 6f 51 20    	movdqa 0x20(%rcx),%xmm10
    361d:	66 44 0f 6f 49 30    	movdqa 0x30(%rcx),%xmm9
    3623:	66 44 0f 6f 41 40    	movdqa 0x40(%rcx),%xmm8
    3629:	66 0f 6f 79 50       	movdqa 0x50(%rcx),%xmm7
    362e:	66 0f 6f 71 60       	movdqa 0x60(%rcx),%xmm6
    3633:	66 0f 6f 69 70       	movdqa 0x70(%rcx),%xmm5
    3638:	66 0f 6f a1 80 00 00 	movdqa 0x80(%rcx),%xmm4
    363f:	00 
    3640:	66 0f 6f 99 90 00 00 	movdqa 0x90(%rcx),%xmm3
    3647:	00 
    3648:	66 44 0f 6f a1 a0 00 	movdqa 0xa0(%rcx),%xmm12
    364f:	00 00 
    3651:	48 8b 44 24 10       	mov    0x10(%rsp),%rax
    3656:	66 0f ef c1          	pxor   %xmm1,%xmm0
    365a:	66 0f ef 44 24 30    	pxor   0x30(%rsp),%xmm0
    3660:	66 41 0f 38 dc c3    	aesenc %xmm11,%xmm0
    3666:	66 41 0f 38 dc c2    	aesenc %xmm10,%xmm0
    366c:	66 41 0f 38 dc c1    	aesenc %xmm9,%xmm0
    3672:	66 41 0f 38 dc c0    	aesenc %xmm8,%xmm0
    3678:	66 0f 38 dc c7       	aesenc %xmm7,%xmm0
    367d:	66 0f 38 dc c6       	aesenc %xmm6,%xmm0
    3682:	66 0f 38 dc c5       	aesenc %xmm5,%xmm0
    3687:	66 0f 38 dc c4       	aesenc %xmm4,%xmm0
    368c:	66 0f 38 dc c3       	aesenc %xmm3,%xmm0
    3691:	66 41 0f 38 dd c4    	aesenclast %xmm12,%xmm0
    3697:	f3 0f 7f 00          	movdqu %xmm0,(%rax)
    369b:	48 8b 79 f8          	mov    -0x8(%rcx),%rdi
    369f:	48 83 c4 40          	add    $0x40,%rsp
    36a3:	5b                   	pop    %rbx
    36a4:	41 5c                	pop    %r12
    36a6:	41 5d                	pop    %r13
    36a8:	41 5e                	pop    %r14
    36aa:	5d                   	pop    %rbp
    36ab:	e9 90 44 00 00       	jmpq   7b40 <dlfree>

00000000000036b0 <init_optimized_libs>:
    36b0:	41 56                	push   %r14
    36b2:	41 54                	push   %r12
    36b4:	53                   	push   %rbx
    36b5:	48 8d 05 b8 2e 22 00 	lea    0x222eb8(%rip),%rax        # 226574 <g_enclave_state>
    36bc:	bb ff ff ff ff       	mov    $0xffffffff,%ebx
    36c1:	83 38 01             	cmpl   $0x1,(%rax)
    36c4:	0f 85 cc 00 00 00    	jne    3796 <init_optimized_libs+0xe6>
    36ca:	89 f8                	mov    %edi,%eax
    36cc:	25 ff ff ff 1e       	and    $0x1effffff,%eax
    36d1:	48 3d 00 02 00 00    	cmp    $0x200,%rax
    36d7:	0f 82 b9 00 00 00    	jb     3796 <init_optimized_libs+0xe6>
    36dd:	49 89 f6             	mov    %rsi,%r14
    36e0:	40 f6 c7 20          	test   $0x20,%dil
    36e4:	74 0f                	je     36f5 <init_optimized_libs+0x45>
    36e6:	89 f9                	mov    %edi,%ecx
    36e8:	83 e1 1f             	and    $0x1f,%ecx
    36eb:	48 83 f9 1f          	cmp    $0x1f,%rcx
    36ef:	0f 85 a1 00 00 00    	jne    3796 <init_optimized_libs+0xe6>
    36f5:	40 f6 c7 40          	test   $0x40,%dil
    36f9:	74 0f                	je     370a <init_optimized_libs+0x5a>
    36fb:	89 f9                	mov    %edi,%ecx
    36fd:	83 e1 3f             	and    $0x3f,%ecx
    3700:	48 83 f9 3f          	cmp    $0x3f,%rcx
    3704:	0f 85 8c 00 00 00    	jne    3796 <init_optimized_libs+0xe6>
    370a:	40 84 ff             	test   %dil,%dil
    370d:	79 0b                	jns    371a <init_optimized_libs+0x6a>
    370f:	89 f9                	mov    %edi,%ecx
    3711:	83 e1 7f             	and    $0x7f,%ecx
    3714:	48 83 f9 7f          	cmp    $0x7f,%rcx
    3718:	75 7c                	jne    3796 <init_optimized_libs+0xe6>
    371a:	f7 c7 00 01 00 00    	test   $0x100,%edi
    3720:	74 0d                	je     372f <init_optimized_libs+0x7f>
    3722:	40 0f b6 cf          	movzbl %dil,%ecx
    3726:	48 81 f9 ff 00 00 00 	cmp    $0xff,%rcx
    372d:	75 67                	jne    3796 <init_optimized_libs+0xe6>
    372f:	f7 c7 00 02 00 00    	test   $0x200,%edi
    3735:	74 11                	je     3748 <init_optimized_libs+0x98>
    3737:	89 f9                	mov    %edi,%ecx
    3739:	81 e1 ff 01 00 00    	and    $0x1ff,%ecx
    373f:	48 81 f9 ff 01 00 00 	cmp    $0x1ff,%rcx
    3746:	75 4e                	jne    3796 <init_optimized_libs+0xe6>
    3748:	f7 c7 00 04 00 00    	test   $0x400,%edi
    374e:	74 11                	je     3761 <init_optimized_libs+0xb1>
    3750:	89 f9                	mov    %edi,%ecx
    3752:	81 e1 ff 03 00 00    	and    $0x3ff,%ecx
    3758:	48 81 f9 ff 03 00 00 	cmp    $0x3ff,%rcx
    375f:	75 35                	jne    3796 <init_optimized_libs+0xe6>
    3761:	83 e2 06             	and    $0x6,%edx
    3764:	81 e7 ff 7f 12 10    	and    $0x10127fff,%edi
    376a:	48 83 fa 06          	cmp    $0x6,%rdx
    376e:	48 0f 44 f8          	cmove  %rax,%rdi
    3772:	4c 8d 25 9f 24 22 00 	lea    0x22249f(%rip),%r12        # 225c18 <g_cpu_feature_indicator>
    3779:	49 89 3c 24          	mov    %rdi,(%r12)
    377d:	e8 2e 62 00 00       	callq  99b0 <sgx_init_string_lib>
    3782:	85 c0                	test   %eax,%eax
    3784:	75 10                	jne    3796 <init_optimized_libs+0xe6>
    3786:	49 8b 3c 24          	mov    (%r12),%rdi
    378a:	4c 89 f6             	mov    %r14,%rsi
    378d:	e8 1e c8 01 00       	callq  1ffb0 <sgx_init_crypto_lib>
    3792:	f7 d8                	neg    %eax
    3794:	19 db                	sbb    %ebx,%ebx
    3796:	89 d8                	mov    %ebx,%eax
    3798:	5b                   	pop    %rbx
    3799:	41 5c                	pop    %r12
    379b:	41 5e                	pop    %r14
    379d:	c3                   	retq   
    379e:	66 90                	xchg   %ax,%ax

00000000000037a0 <trts_access_version_dummy1>:
    37a0:	48 8d 05 69 28 22 00 	lea    0x222869(%rip),%rax        # 226010 <sgx_trts_version>
    37a7:	c6 00 73             	movb   $0x73,(%rax)
    37aa:	c3                   	retq   
    37ab:	0f 1f 44 00 00       	nopl   0x0(%rax,%rax,1)

00000000000037b0 <sgx_is_within_enclave>:
    37b0:	48 8d 05 89 ee 01 00 	lea    0x1ee89(%rip),%rax        # 22640 <g_global_data>
    37b7:	48 8b 00             	mov    (%rax),%rax
    37ba:	4c 8b 05 17 28 22 00 	mov    0x222817(%rip),%r8        # 225fd8 <_GLOBAL_OFFSET_TABLE_+0x18>
    37c1:	48 8d 56 ff          	lea    -0x1(%rsi),%rdx
    37c5:	48 85 f6             	test   %rsi,%rsi
    37c8:	48 0f 44 d6          	cmove  %rsi,%rdx
    37cc:	4a 8d 34 00          	lea    (%rax,%r8,1),%rsi
    37d0:	48 83 c6 ff          	add    $0xffffffffffffffff,%rsi
    37d4:	48 01 fa             	add    %rdi,%rdx
    37d7:	0f 92 c1             	setb   %cl
    37da:	f6 d1                	not    %cl
    37dc:	4c 39 c7             	cmp    %r8,%rdi
    37df:	0f 93 c0             	setae  %al
    37e2:	20 c8                	and    %cl,%al
    37e4:	48 39 f2             	cmp    %rsi,%rdx
    37e7:	0f 96 c1             	setbe  %cl
    37ea:	20 c1                	and    %al,%cl
    37ec:	0f b6 c1             	movzbl %cl,%eax
    37ef:	c3                   	retq   

00000000000037f0 <sgx_is_outside_enclave>:
    37f0:	48 8d 05 49 ee 01 00 	lea    0x1ee49(%rip),%rax        # 22640 <g_global_data>
    37f7:	48 8b 08             	mov    (%rax),%rcx
    37fa:	48 8d 56 ff          	lea    -0x1(%rsi),%rdx
    37fe:	48 85 f6             	test   %rsi,%rsi
    3801:	48 0f 44 d6          	cmove  %rsi,%rdx
    3805:	48 01 fa             	add    %rdi,%rdx
    3808:	72 1d                	jb     3827 <sgx_is_outside_enclave+0x37>
    380a:	48 8b 35 c7 27 22 00 	mov    0x2227c7(%rip),%rsi        # 225fd8 <_GLOBAL_OFFSET_TABLE_+0x18>
    3811:	b8 01 00 00 00       	mov    $0x1,%eax
    3816:	48 39 f2             	cmp    %rsi,%rdx
    3819:	72 0e                	jb     3829 <sgx_is_outside_enclave+0x39>
    381b:	48 01 f1             	add    %rsi,%rcx
    381e:	48 83 c1 ff          	add    $0xffffffffffffffff,%rcx
    3822:	48 39 f9             	cmp    %rdi,%rcx
    3825:	72 02                	jb     3829 <sgx_is_outside_enclave+0x39>
    3827:	31 c0                	xor    %eax,%eax
    3829:	c3                   	retq   
    382a:	66 0f 1f 44 00 00    	nopw   0x0(%rax,%rax,1)

0000000000003830 <sgx_ocalloc>:
    3830:	53                   	push   %rbx
    3831:	48 83 ec 10          	sub    $0x10,%rsp
    3835:	48 89 fb             	mov    %rdi,%rbx
    3838:	e8 fd d7 01 00       	callq  2103a <get_thread_data>
    383d:	48 8b 48 20          	mov    0x20(%rax),%rcx
    3841:	48 8b 91 90 00 00 00 	mov    0x90(%rcx),%rdx
    3848:	4c 8d 05 f1 ed 01 00 	lea    0x1edf1(%rip),%r8        # 22640 <g_global_data>
    384f:	49 8b 00             	mov    (%r8),%rax
    3852:	48 83 fa f8          	cmp    $0xfffffffffffffff8,%rdx
    3856:	0f 87 a8 00 00 00    	ja     3904 <sgx_ocalloc+0xd4>
    385c:	48 8d 72 07          	lea    0x7(%rdx),%rsi
    3860:	4c 8b 0d 71 27 22 00 	mov    0x222771(%rip),%r9        # 225fd8 <_GLOBAL_OFFSET_TABLE_+0x18>
    3867:	4c 39 ce             	cmp    %r9,%rsi
    386a:	72 10                	jb     387c <sgx_ocalloc+0x4c>
    386c:	4c 01 c8             	add    %r9,%rax
    386f:	48 83 c0 ff          	add    $0xffffffffffffffff,%rax
    3873:	48 39 d0             	cmp    %rdx,%rax
    3876:	0f 83 88 00 00 00    	jae    3904 <sgx_ocalloc+0xd4>
    387c:	48 89 d6             	mov    %rdx,%rsi
    387f:	48 29 de             	sub    %rbx,%rsi
    3882:	0f 82 7c 00 00 00    	jb     3904 <sgx_ocalloc+0xd4>
    3888:	48 89 f0             	mov    %rsi,%rax
    388b:	48 83 e0 f0          	and    $0xfffffffffffffff0,%rax
    388f:	4d 8b 00             	mov    (%r8),%r8
    3892:	48 8d 7b ff          	lea    -0x1(%rbx),%rdi
    3896:	48 85 db             	test   %rbx,%rbx
    3899:	48 0f 44 fb          	cmove  %rbx,%rdi
    389d:	48 01 c7             	add    %rax,%rdi
    38a0:	72 62                	jb     3904 <sgx_ocalloc+0xd4>
    38a2:	4c 39 cf             	cmp    %r9,%rdi
    38a5:	72 0d                	jb     38b4 <sgx_ocalloc+0x84>
    38a7:	4b 8d 3c 08          	lea    (%r8,%r9,1),%rdi
    38ab:	48 83 c7 ff          	add    $0xffffffffffffffff,%rdi
    38af:	48 39 c7             	cmp    %rax,%rdi
    38b2:	73 50                	jae    3904 <sgx_ocalloc+0xd4>
    38b4:	48 81 e6 00 f0 ff ff 	and    $0xfffffffffffff000,%rsi
    38bb:	74 47                	je     3904 <sgx_ocalloc+0xd4>
    38bd:	48 83 c2 ff          	add    $0xffffffffffffffff,%rdx
    38c1:	48 81 e2 00 f0 ff ff 	and    $0xfffffffffffff000,%rdx
    38c8:	48 89 54 24 08       	mov    %rdx,0x8(%rsp)
    38cd:	eb 1e                	jmp    38ed <sgx_ocalloc+0xbd>
    38cf:	90                   	nop
    38d0:	48 8b 54 24 08       	mov    0x8(%rsp),%rdx
    38d5:	48 89 91 90 00 00 00 	mov    %rdx,0x90(%rcx)
    38dc:	48 8b 54 24 08       	mov    0x8(%rsp),%rdx
    38e1:	c6 02 00             	movb   $0x0,(%rdx)
    38e4:	48 81 44 24 08 00 f0 	addq   $0xfffffffffffff000,0x8(%rsp)
    38eb:	ff ff 
    38ed:	48 8b 54 24 08       	mov    0x8(%rsp),%rdx
    38f2:	48 39 f2             	cmp    %rsi,%rdx
    38f5:	73 d9                	jae    38d0 <sgx_ocalloc+0xa0>
    38f7:	48 89 81 90 00 00 00 	mov    %rax,0x90(%rcx)
    38fe:	48 83 c4 10          	add    $0x10,%rsp
    3902:	5b                   	pop    %rbx
    3903:	c3                   	retq   
    3904:	e8 2a da 01 00       	callq  21333 <abort>
    3909:	0f 1f 80 00 00 00 00 	nopl   0x0(%rax)

0000000000003910 <sgx_ocfree>:
    3910:	50                   	push   %rax
    3911:	e8 24 d7 01 00       	callq  2103a <get_thread_data>
    3916:	48 8b 48 08          	mov    0x8(%rax),%rcx
    391a:	48 8b 40 20          	mov    0x20(%rax),%rax
    391e:	48 8b 49 e8          	mov    -0x18(%rcx),%rcx
    3922:	48 8d 15 17 ed 01 00 	lea    0x1ed17(%rip),%rdx        # 22640 <g_global_data>
    3929:	48 8b 12             	mov    (%rdx),%rdx
    392c:	48 83 f9 f8          	cmp    $0xfffffffffffffff8,%rcx
    3930:	77 25                	ja     3957 <sgx_ocfree+0x47>
    3932:	48 8d 79 07          	lea    0x7(%rcx),%rdi
    3936:	48 8b 35 9b 26 22 00 	mov    0x22269b(%rip),%rsi        # 225fd8 <_GLOBAL_OFFSET_TABLE_+0x18>
    393d:	48 39 f7             	cmp    %rsi,%rdi
    3940:	72 0c                	jb     394e <sgx_ocfree+0x3e>
    3942:	48 01 f2             	add    %rsi,%rdx
    3945:	48 83 c2 ff          	add    $0xffffffffffffffff,%rdx
    3949:	48 39 ca             	cmp    %rcx,%rdx
    394c:	73 09                	jae    3957 <sgx_ocfree+0x47>
    394e:	48 89 88 90 00 00 00 	mov    %rcx,0x90(%rax)
    3955:	58                   	pop    %rax
    3956:	c3                   	retq   
    3957:	e8 d7 d9 01 00       	callq  21333 <abort>
    395c:	0f 1f 40 00          	nopl   0x0(%rax)

0000000000003960 <sgx_read_rand>:
    3960:	55                   	push   %rbp
    3961:	41 56                	push   %r14
    3963:	41 54                	push   %r12
    3965:	53                   	push   %rbx
    3966:	50                   	push   %rax
    3967:	bd 02 00 00 00       	mov    $0x2,%ebp
    396c:	48 85 ff             	test   %rdi,%rdi
    396f:	0f 84 c4 00 00 00    	je     3a39 <sgx_read_rand+0xd9>
    3975:	48 89 f3             	mov    %rsi,%rbx
    3978:	48 85 f6             	test   %rsi,%rsi
    397b:	0f 84 b8 00 00 00    	je     3a39 <sgx_read_rand+0xd9>
    3981:	49 89 fe             	mov    %rdi,%r14
    3984:	48 8d 3d b5 ec 01 00 	lea    0x1ecb5(%rip),%rdi        # 22640 <g_global_data>
    398b:	48 8b 37             	mov    (%rdi),%rsi
    398e:	48 8b 05 43 26 22 00 	mov    0x222643(%rip),%rax        # 225fd8 <_GLOBAL_OFFSET_TABLE_+0x18>
    3995:	48 8d 4b ff          	lea    -0x1(%rbx),%rcx
    3999:	4c 01 f1             	add    %r14,%rcx
    399c:	0f 92 c2             	setb   %dl
    399f:	49 39 c6             	cmp    %rax,%r14
    39a2:	72 75                	jb     3a19 <sgx_read_rand+0xb9>
    39a4:	84 d2                	test   %dl,%dl
    39a6:	75 71                	jne    3a19 <sgx_read_rand+0xb9>
    39a8:	48 8d 14 06          	lea    (%rsi,%rax,1),%rdx
    39ac:	48 83 c2 ff          	add    $0xffffffffffffffff,%rdx
    39b0:	48 39 d1             	cmp    %rdx,%rcx
    39b3:	77 64                	ja     3a19 <sgx_read_rand+0xb9>
    39b5:	c7 44 24 04 00 00 00 	movl   $0x0,0x4(%rsp)
    39bc:	00 
    39bd:	4c 8d 64 24 04       	lea    0x4(%rsp),%r12
    39c2:	66 2e 0f 1f 84 00 00 	nopw   %cs:0x0(%rax,%rax,1)
    39c9:	00 00 00 
    39cc:	0f 1f 40 00          	nopl   0x0(%rax)
    39d0:	4c 89 e7             	mov    %r12,%rdi
    39d3:	e8 3c d9 01 00       	callq  21314 <do_rdrand>
    39d8:	85 c0                	test   %eax,%eax
    39da:	74 58                	je     3a34 <sgx_read_rand+0xd4>
    39dc:	48 83 fb 04          	cmp    $0x4,%rbx
    39e0:	bd 04 00 00 00       	mov    $0x4,%ebp
    39e5:	48 0f 42 eb          	cmovb  %rbx,%rbp
    39e9:	4c 89 f7             	mov    %r14,%rdi
    39ec:	4c 89 e6             	mov    %r12,%rsi
    39ef:	48 89 ea             	mov    %rbp,%rdx
    39f2:	e8 49 57 00 00       	callq  9140 <memcpy>
    39f7:	49 01 ee             	add    %rbp,%r14
    39fa:	48 29 eb             	sub    %rbp,%rbx
    39fd:	75 d1                	jne    39d0 <sgx_read_rand+0x70>
    39ff:	48 8d 7c 24 04       	lea    0x4(%rsp),%rdi
    3a04:	31 ed                	xor    %ebp,%ebp
    3a06:	be 04 00 00 00       	mov    $0x4,%esi
    3a0b:	b9 04 00 00 00       	mov    $0x4,%ecx
    3a10:	31 d2                	xor    %edx,%edx
    3a12:	e8 d9 5d 00 00       	callq  97f0 <memset_s>
    3a17:	eb 20                	jmp    3a39 <sgx_read_rand+0xd9>
    3a19:	48 8b 17             	mov    (%rdi),%rdx
    3a1c:	4c 39 f1             	cmp    %r14,%rcx
    3a1f:	72 18                	jb     3a39 <sgx_read_rand+0xd9>
    3a21:	48 39 c1             	cmp    %rax,%rcx
    3a24:	72 8f                	jb     39b5 <sgx_read_rand+0x55>
    3a26:	48 01 d0             	add    %rdx,%rax
    3a29:	48 83 c0 ff          	add    $0xffffffffffffffff,%rax
    3a2d:	4c 39 f0             	cmp    %r14,%rax
    3a30:	73 07                	jae    3a39 <sgx_read_rand+0xd9>
    3a32:	eb 81                	jmp    39b5 <sgx_read_rand+0x55>
    3a34:	bd 01 00 00 00       	mov    $0x1,%ebp
    3a39:	89 e8                	mov    %ebp,%eax
    3a3b:	48 83 c4 08          	add    $0x8,%rsp
    3a3f:	5b                   	pop    %rbx
    3a40:	41 5c                	pop    %r12
    3a42:	41 5e                	pop    %r14
    3a44:	5d                   	pop    %rbp
    3a45:	c3                   	retq   
    3a46:	66 2e 0f 1f 84 00 00 	nopw   %cs:0x0(%rax,%rax,1)
    3a4d:	00 00 00 

0000000000003a50 <check_static_stack_canary>:
    3a50:	48 8b 8f 58 fd fe ff 	mov    -0x102a8(%rdi),%rcx
    3a57:	48 8d 15 ca 21 22 00 	lea    0x2221ca(%rip),%rdx        # 225c28 <__intel_security_cookie>
    3a5e:	31 c0                	xor    %eax,%eax
    3a60:	48 3b 0a             	cmp    (%rdx),%rcx
    3a63:	0f 95 c0             	setne  %al
    3a66:	f7 d8                	neg    %eax
    3a68:	c3                   	retq   
    3a69:	0f 1f 80 00 00 00 00 	nopl   0x0(%rax)

0000000000003a70 <random_stack_notify_gdb>:
    3a70:	c3                   	retq   
    3a71:	66 2e 0f 1f 84 00 00 	nopw   %cs:0x0(%rax,%rax,1)
    3a78:	00 00 00 
    3a7b:	0f 1f 44 00 00       	nopl   0x0(%rax,%rax,1)

0000000000003a80 <_Z18accept_post_removePVK9_layout_tS1_m>:
    3a80:	55                   	push   %rbp
    3a81:	48 89 e5             	mov    %rsp,%rbp
    3a84:	41 56                	push   %r14
    3a86:	41 55                	push   %r13
    3a88:	41 54                	push   %r12
    3a8a:	53                   	push   %rbx
    3a8b:	48 83 e4 c0          	and    $0xffffffffffffffc0,%rsp
    3a8f:	48 81 ec c0 00 00 00 	sub    $0xc0,%rsp
    3a96:	48 89 54 24 20       	mov    %rdx,0x20(%rsp)
    3a9b:	48 89 74 24 28       	mov    %rsi,0x28(%rsp)
    3aa0:	48 39 f7             	cmp    %rsi,%rdi
    3aa3:	0f 83 16 01 00 00    	jae    3bbf <_Z18accept_post_removePVK9_layout_tS1_m+0x13f>
    3aa9:	49 89 fc             	mov    %rdi,%r12
    3aac:	b8 10 04 00 00       	mov    $0x410,%eax
    3ab1:	66 48 0f 6e c0       	movq   %rax,%xmm0
    3ab6:	66 0f 7f 44 24 30    	movdqa %xmm0,0x30(%rsp)
    3abc:	4c 8d 6c 24 40       	lea    0x40(%rsp),%r13
    3ac1:	66 2e 0f 1f 84 00 00 	nopw   %cs:0x0(%rax,%rax,1)
    3ac8:	00 00 00 
    3acb:	0f 1f 44 00 00       	nopl   0x0(%rax,%rax,1)
    3ad0:	41 0f b7 04 24       	movzwl (%r12),%eax
    3ad5:	a9 00 10 00 00       	test   $0x1000,%eax
    3ada:	75 0a                	jne    3ae6 <_Z18accept_post_removePVK9_layout_tS1_m+0x66>
    3adc:	41 0f b7 44 24 02    	movzwl 0x2(%r12),%eax
    3ae2:	a8 10                	test   $0x10,%al
    3ae4:	75 5a                	jne    3b40 <_Z18accept_post_removePVK9_layout_tS1_m+0xc0>
    3ae6:	41 0f b7 04 24       	movzwl (%r12),%eax
    3aeb:	a9 00 10 00 00       	test   $0x1000,%eax
    3af0:	0f 84 ba 00 00 00    	je     3bb0 <_Z18accept_post_removePVK9_layout_tS1_m+0x130>
    3af6:	41 83 7c 24 04 00    	cmpl   $0x0,0x4(%r12)
    3afc:	0f 84 ae 00 00 00    	je     3bb0 <_Z18accept_post_removePVK9_layout_tS1_m+0x130>
    3b02:	45 31 f6             	xor    %r14d,%r14d
    3b05:	31 db                	xor    %ebx,%ebx
    3b07:	66 0f 1f 84 00 00 00 	nopw   0x0(%rax,%rax,1)
    3b0e:	00 00 
    3b10:	49 03 5c 24 08       	add    0x8(%r12),%rbx
    3b15:	41 0f b7 44 24 02    	movzwl 0x2(%r12),%eax
    3b1b:	48 c1 e0 05          	shl    $0x5,%rax
    3b1f:	4c 89 e7             	mov    %r12,%rdi
    3b22:	48 29 c7             	sub    %rax,%rdi
    3b25:	4c 89 e6             	mov    %r12,%rsi
    3b28:	48 89 da             	mov    %rbx,%rdx
    3b2b:	e8 50 ff ff ff       	callq  3a80 <_Z18accept_post_removePVK9_layout_tS1_m>
    3b30:	41 83 c6 01          	add    $0x1,%r14d
    3b34:	45 3b 74 24 04       	cmp    0x4(%r12),%r14d
    3b39:	72 d5                	jb     3b10 <_Z18accept_post_removePVK9_layout_tS1_m+0x90>
    3b3b:	eb 73                	jmp    3bb0 <_Z18accept_post_removePVK9_layout_tS1_m+0x130>
    3b3d:	0f 1f 00             	nopl   (%rax)
    3b40:	49 8b 5c 24 08       	mov    0x8(%r12),%rbx
    3b45:	48 03 5c 24 20       	add    0x20(%rsp),%rbx
    3b4a:	e8 b0 d4 01 00       	callq  20fff <get_enclave_base>
    3b4f:	49 89 c6             	mov    %rax,%r14
    3b52:	49 01 de             	add    %rbx,%r14
    3b55:	41 8b 5c 24 04       	mov    0x4(%r12),%ebx
    3b5a:	48 c1 e3 0c          	shl    $0xc,%rbx
    3b5e:	4c 01 f3             	add    %r14,%rbx
    3b61:	66 0f 6f 44 24 30    	movdqa 0x30(%rsp),%xmm0
    3b67:	66 0f 7f 44 24 40    	movdqa %xmm0,0x40(%rsp)
    3b6d:	66 0f ef c0          	pxor   %xmm0,%xmm0
    3b71:	66 0f 7f 44 24 50    	movdqa %xmm0,0x50(%rsp)
    3b77:	66 0f 7f 44 24 60    	movdqa %xmm0,0x60(%rsp)
    3b7d:	66 0f 7f 44 24 70    	movdqa %xmm0,0x70(%rsp)
    3b83:	49 39 de             	cmp    %rbx,%r14
    3b86:	72 14                	jb     3b9c <_Z18accept_post_removePVK9_layout_tS1_m+0x11c>
    3b88:	eb 26                	jmp    3bb0 <_Z18accept_post_removePVK9_layout_tS1_m+0x130>
    3b8a:	66 0f 1f 44 00 00    	nopw   0x0(%rax,%rax,1)
    3b90:	49 81 c6 00 10 00 00 	add    $0x1000,%r14
    3b97:	49 39 de             	cmp    %rbx,%r14
    3b9a:	73 14                	jae    3bb0 <_Z18accept_post_removePVK9_layout_tS1_m+0x130>
    3b9c:	4c 89 ef             	mov    %r13,%rdi
    3b9f:	4c 89 f6             	mov    %r14,%rsi
    3ba2:	e8 53 d7 01 00       	callq  212fa <do_eaccept>
    3ba7:	85 c0                	test   %eax,%eax
    3ba9:	74 e5                	je     3b90 <_Z18accept_post_removePVK9_layout_tS1_m+0x110>
    3bab:	eb 21                	jmp    3bce <_Z18accept_post_removePVK9_layout_tS1_m+0x14e>
    3bad:	0f 1f 00             	nopl   (%rax)
    3bb0:	49 83 c4 20          	add    $0x20,%r12
    3bb4:	4c 3b 64 24 28       	cmp    0x28(%rsp),%r12
    3bb9:	0f 82 11 ff ff ff    	jb     3ad0 <_Z18accept_post_removePVK9_layout_tS1_m+0x50>
    3bbf:	31 c0                	xor    %eax,%eax
    3bc1:	48 8d 65 e0          	lea    -0x20(%rbp),%rsp
    3bc5:	5b                   	pop    %rbx
    3bc6:	41 5c                	pop    %r12
    3bc8:	41 5d                	pop    %r13
    3bca:	41 5e                	pop    %r14
    3bcc:	5d                   	pop    %rbp
    3bcd:	c3                   	retq   
    3bce:	e8 60 d7 01 00       	callq  21333 <abort>
    3bd3:	66 2e 0f 1f 84 00 00 	nopw   %cs:0x0(%rax,%rax,1)
    3bda:	00 00 00 
    3bdd:	0f 1f 00             	nopl   (%rax)

0000000000003be0 <sgx_accept_forward>:
    3be0:	55                   	push   %rbp
    3be1:	48 89 e5             	mov    %rsp,%rbp
    3be4:	41 56                	push   %r14
    3be6:	41 54                	push   %r12
    3be8:	53                   	push   %rbx
    3be9:	48 83 e4 c0          	and    $0xffffffffffffffc0,%rsp
    3bed:	48 81 ec 80 00 00 00 	sub    $0x80,%rsp
    3bf4:	48 89 3c 24          	mov    %rdi,(%rsp)
    3bf8:	0f 57 c0             	xorps  %xmm0,%xmm0
    3bfb:	0f 11 44 24 08       	movups %xmm0,0x8(%rsp)
    3c00:	0f 11 44 24 18       	movups %xmm0,0x18(%rsp)
    3c05:	0f 11 44 24 28       	movups %xmm0,0x28(%rsp)
    3c0a:	48 c7 44 24 38 00 00 	movq   $0x0,0x38(%rsp)
    3c11:	00 00 
    3c13:	48 39 d6             	cmp    %rdx,%rsi
    3c16:	73 33                	jae    3c4b <sgx_accept_forward+0x6b>
    3c18:	49 89 d6             	mov    %rdx,%r14
    3c1b:	48 89 f3             	mov    %rsi,%rbx
    3c1e:	49 89 e4             	mov    %rsp,%r12
    3c21:	66 2e 0f 1f 84 00 00 	nopw   %cs:0x0(%rax,%rax,1)
    3c28:	00 00 00 
    3c2b:	0f 1f 44 00 00       	nopl   0x0(%rax,%rax,1)
    3c30:	4c 89 e7             	mov    %r12,%rdi
    3c33:	48 89 de             	mov    %rbx,%rsi
    3c36:	e8 bf d6 01 00       	callq  212fa <do_eaccept>
    3c3b:	85 c0                	test   %eax,%eax
    3c3d:	75 19                	jne    3c58 <sgx_accept_forward+0x78>
    3c3f:	48 81 c3 00 10 00 00 	add    $0x1000,%rbx
    3c46:	4c 39 f3             	cmp    %r14,%rbx
    3c49:	72 e5                	jb     3c30 <sgx_accept_forward+0x50>
    3c4b:	31 c0                	xor    %eax,%eax
    3c4d:	48 8d 65 e8          	lea    -0x18(%rbp),%rsp
    3c51:	5b                   	pop    %rbx
    3c52:	41 5c                	pop    %r12
    3c54:	41 5e                	pop    %r14
    3c56:	5d                   	pop    %rbp
    3c57:	c3                   	retq   
    3c58:	e8 d6 d6 01 00       	callq  21333 <abort>
    3c5d:	0f 1f 00             	nopl   (%rax)

0000000000003c60 <is_dynamic_thread>:
    3c60:	48 83 ec 18          	sub    $0x18,%rsp
    3c64:	48 85 ff             	test   %rdi,%rdi
    3c67:	74 25                	je     3c8e <is_dynamic_thread+0x2e>
    3c69:	48 8d 4c 24 08       	lea    0x8(%rsp),%rcx
    3c6e:	be 01 00 00 00       	mov    $0x1,%esi
    3c73:	31 d2                	xor    %edx,%edx
    3c75:	e8 26 00 00 00       	callq  3ca0 <_ZL19check_dynamic_rangePvmPmP24dynamic_flags_attributes>
    3c7a:	85 c0                	test   %eax,%eax
    3c7c:	75 10                	jne    3c8e <is_dynamic_thread+0x2e>
    3c7e:	b8 01 00 00 00       	mov    $0x1,%eax
    3c83:	48 81 7c 24 08 00 01 	cmpq   $0x100,0x8(%rsp)
    3c8a:	00 00 
    3c8c:	74 02                	je     3c90 <is_dynamic_thread+0x30>
    3c8e:	31 c0                	xor    %eax,%eax
    3c90:	48 83 c4 18          	add    $0x18,%rsp
    3c94:	c3                   	retq   
    3c95:	66 2e 0f 1f 84 00 00 	nopw   %cs:0x0(%rax,%rax,1)
    3c9c:	00 00 00 
    3c9f:	90                   	nop

0000000000003ca0 <_ZL19check_dynamic_rangePvmPmP24dynamic_flags_attributes>:
    3ca0:	55                   	push   %rbp
    3ca1:	41 56                	push   %r14
    3ca3:	41 55                	push   %r13
    3ca5:	41 54                	push   %r12
    3ca7:	53                   	push   %rbx
    3ca8:	48 83 ec 30          	sub    $0x30,%rsp
    3cac:	48 c1 e6 0c          	shl    $0xc,%rsi
    3cb0:	48 89 34 24          	mov    %rsi,(%rsp)
    3cb4:	48 89 f0             	mov    %rsi,%rax
    3cb7:	48 f7 d0             	not    %rax
    3cba:	41 bd ff ff ff ff    	mov    $0xffffffff,%r13d
    3cc0:	48 39 c7             	cmp    %rax,%rdi
    3cc3:	76 10                	jbe    3cd5 <_ZL19check_dynamic_rangePvmPmP24dynamic_flags_attributes+0x35>
    3cc5:	44 89 e8             	mov    %r13d,%eax
    3cc8:	48 83 c4 30          	add    $0x30,%rsp
    3ccc:	5b                   	pop    %rbx
    3ccd:	41 5c                	pop    %r12
    3ccf:	41 5d                	pop    %r13
    3cd1:	41 5e                	pop    %r14
    3cd3:	5d                   	pop    %rbp
    3cd4:	c3                   	retq   
    3cd5:	48 89 d5             	mov    %rdx,%rbp
    3cd8:	48 89 fb             	mov    %rdi,%rbx
    3cdb:	48 89 4c 24 08       	mov    %rcx,0x8(%rsp)
    3ce0:	e8 ab 13 00 00       	callq  5090 <get_heap_base>
    3ce5:	48 89 5c 24 18       	mov    %rbx,0x18(%rsp)
    3cea:	48 89 c3             	mov    %rax,%rbx
    3ced:	e8 1e 14 00 00       	callq  5110 <get_heap_min_size>
    3cf2:	49 89 c6             	mov    %rax,%r14
    3cf5:	49 01 de             	add    %rbx,%r14
    3cf8:	48 8b 5c 24 18       	mov    0x18(%rsp),%rbx
    3cfd:	e8 ae 13 00 00       	callq  50b0 <get_heap_size>
    3d02:	49 89 c4             	mov    %rax,%r12
    3d05:	e8 06 14 00 00       	callq  5110 <get_heap_min_size>
    3d0a:	49 39 de             	cmp    %rbx,%r14
    3d0d:	77 13                	ja     3d22 <_ZL19check_dynamic_rangePvmPmP24dynamic_flags_attributes+0x82>
    3d0f:	48 8b 0c 24          	mov    (%rsp),%rcx
    3d13:	48 8d 0c 19          	lea    (%rcx,%rbx,1),%rcx
    3d17:	4d 01 e6             	add    %r12,%r14
    3d1a:	49 29 c6             	sub    %rax,%r14
    3d1d:	4c 39 f1             	cmp    %r14,%rcx
    3d20:	76 53                	jbe    3d75 <_ZL19check_dynamic_rangePvmPmP24dynamic_flags_attributes+0xd5>
    3d22:	48 89 6c 24 10       	mov    %rbp,0x10(%rsp)
    3d27:	48 8d 35 12 e9 01 00 	lea    0x1e912(%rip),%rsi        # 22640 <g_global_data>
    3d2e:	83 be 08 01 00 00 00 	cmpl   $0x0,0x108(%rsi)
    3d35:	0f 84 8d 00 00 00    	je     3dc8 <_ZL19check_dynamic_rangePvmPmP24dynamic_flags_attributes+0x128>
    3d3b:	bd 12 01 00 00       	mov    $0x112,%ebp
    3d40:	48 03 2d a1 22 22 00 	add    0x2222a1(%rip),%rbp        # 225fe8 <_GLOBAL_OFFSET_TABLE_+0x28>
    3d47:	31 c0                	xor    %eax,%eax
    3d49:	0f 1f 80 00 00 00 00 	nopl   0x0(%rax)
    3d50:	89 c1                	mov    %eax,%ecx
    3d52:	48 c1 e1 05          	shl    $0x5,%rcx
    3d56:	0f b7 8c 0e 10 01 00 	movzwl 0x110(%rsi,%rcx,1),%ecx
    3d5d:	00 
    3d5e:	66 83 f9 07          	cmp    $0x7,%cx
    3d62:	74 34                	je     3d98 <_ZL19check_dynamic_rangePvmPmP24dynamic_flags_attributes+0xf8>
    3d64:	83 c0 01             	add    $0x1,%eax
    3d67:	48 83 c5 20          	add    $0x20,%rbp
    3d6b:	3b 86 08 01 00 00    	cmp    0x108(%rsi),%eax
    3d71:	72 dd                	jb     3d50 <_ZL19check_dynamic_rangePvmPmP24dynamic_flags_attributes+0xb0>
    3d73:	eb 53                	jmp    3dc8 <_ZL19check_dynamic_rangePvmPmP24dynamic_flags_attributes+0x128>
    3d75:	45 31 ed             	xor    %r13d,%r13d
    3d78:	48 8b 44 24 08       	mov    0x8(%rsp),%rax
    3d7d:	48 85 c0             	test   %rax,%rax
    3d80:	0f 84 3f ff ff ff    	je     3cc5 <_ZL19check_dynamic_rangePvmPmP24dynamic_flags_attributes+0x25>
    3d86:	48 c7 00 03 02 00 00 	movq   $0x203,(%rax)
    3d8d:	66 c7 40 08 08 00    	movw   $0x8,0x8(%rax)
    3d93:	e9 2d ff ff ff       	jmpq   3cc5 <_ZL19check_dynamic_rangePvmPmP24dynamic_flags_attributes+0x25>
    3d98:	e8 62 d2 01 00       	callq  20fff <get_enclave_base>
    3d9d:	48 8d 35 9c e8 01 00 	lea    0x1e89c(%rip),%rsi        # 22640 <g_global_data>
    3da4:	48 03 45 06          	add    0x6(%rbp),%rax
    3da8:	8b 4d 02             	mov    0x2(%rbp),%ecx
    3dab:	48 39 d8             	cmp    %rbx,%rax
    3dae:	77 18                	ja     3dc8 <_ZL19check_dynamic_rangePvmPmP24dynamic_flags_attributes+0x128>
    3db0:	48 8b 14 24          	mov    (%rsp),%rdx
    3db4:	48 8d 14 1a          	lea    (%rdx,%rbx,1),%rdx
    3db8:	48 c1 e1 0c          	shl    $0xc,%rcx
    3dbc:	48 01 c1             	add    %rax,%rcx
    3dbf:	48 39 ca             	cmp    %rcx,%rdx
    3dc2:	0f 86 f8 03 00 00    	jbe    41c0 <_ZL19check_dynamic_rangePvmPmP24dynamic_flags_attributes+0x520>
    3dc8:	83 be 08 01 00 00 00 	cmpl   $0x0,0x108(%rsi)
    3dcf:	74 34                	je     3e05 <_ZL19check_dynamic_rangePvmPmP24dynamic_flags_attributes+0x165>
    3dd1:	ba 18 01 00 00       	mov    $0x118,%edx
    3dd6:	48 03 15 0b 22 22 00 	add    0x22220b(%rip),%rdx        # 225fe8 <_GLOBAL_OFFSET_TABLE_+0x28>
    3ddd:	31 c0                	xor    %eax,%eax
    3ddf:	90                   	nop
    3de0:	89 c1                	mov    %eax,%ecx
    3de2:	48 c1 e1 05          	shl    $0x5,%rcx
    3de6:	0f b7 8c 0e 10 01 00 	movzwl 0x110(%rsi,%rcx,1),%ecx
    3ded:	00 
    3dee:	81 f9 13 10 00 00    	cmp    $0x1013,%ecx
    3df4:	74 67                	je     3e5d <_ZL19check_dynamic_rangePvmPmP24dynamic_flags_attributes+0x1bd>
    3df6:	83 c0 01             	add    $0x1,%eax
    3df9:	48 83 c2 20          	add    $0x20,%rdx
    3dfd:	3b 86 08 01 00 00    	cmp    0x108(%rsi),%eax
    3e03:	72 db                	jb     3de0 <_ZL19check_dynamic_rangePvmPmP24dynamic_flags_attributes+0x140>
    3e05:	48 01 1c 24          	add    %rbx,(%rsp)
    3e09:	83 be 08 01 00 00 00 	cmpl   $0x0,0x108(%rsi)
    3e10:	0f 84 99 01 00 00    	je     3faf <_ZL19check_dynamic_rangePvmPmP24dynamic_flags_attributes+0x30f>
    3e16:	41 be 18 01 00 00    	mov    $0x118,%r14d
    3e1c:	4c 03 35 c5 21 22 00 	add    0x2221c5(%rip),%r14        # 225fe8 <_GLOBAL_OFFSET_TABLE_+0x28>
    3e23:	31 ed                	xor    %ebp,%ebp
    3e25:	66 2e 0f 1f 84 00 00 	nopw   %cs:0x0(%rax,%rax,1)
    3e2c:	00 00 00 
    3e2f:	90                   	nop
    3e30:	89 e8                	mov    %ebp,%eax
    3e32:	48 c1 e0 05          	shl    $0x5,%rax
    3e36:	0f b7 84 06 10 01 00 	movzwl 0x110(%rsi,%rax,1),%eax
    3e3d:	00 
    3e3e:	66 83 f8 0e          	cmp    $0xe,%ax
    3e42:	0f 84 3e 01 00 00    	je     3f86 <_ZL19check_dynamic_rangePvmPmP24dynamic_flags_attributes+0x2e6>
    3e48:	48 83 c5 01          	add    $0x1,%rbp
    3e4c:	49 83 c6 20          	add    $0x20,%r14
    3e50:	3b ae 08 01 00 00    	cmp    0x108(%rsi),%ebp
    3e56:	72 d8                	jb     3e30 <_ZL19check_dynamic_rangePvmPmP24dynamic_flags_attributes+0x190>
    3e58:	e9 52 01 00 00       	jmpq   3faf <_ZL19check_dynamic_rangePvmPmP24dynamic_flags_attributes+0x30f>
    3e5d:	48 01 1c 24          	add    %rbx,(%rsp)
    3e61:	66 bd 0e 00          	mov    $0xe,%bp
    3e65:	b8 28 01 00 00       	mov    $0x128,%eax
    3e6a:	48 03 05 77 21 22 00 	add    0x222177(%rip),%rax        # 225fe8 <_GLOBAL_OFFSET_TABLE_+0x28>
    3e71:	48 89 44 24 28       	mov    %rax,0x28(%rsp)
    3e76:	48 89 54 24 20       	mov    %rdx,0x20(%rsp)
    3e7b:	0f 1f 44 00 00       	nopl   0x0(%rax,%rax,1)
    3e80:	8b 42 fc             	mov    -0x4(%rdx),%eax
    3e83:	83 f8 ff             	cmp    $0xffffffff,%eax
    3e86:	0f 84 a7 00 00 00    	je     3f33 <_ZL19check_dynamic_rangePvmPmP24dynamic_flags_attributes+0x293>
    3e8c:	45 31 ed             	xor    %r13d,%r13d
    3e8f:	90                   	nop
    3e90:	4c 8b 32             	mov    (%rdx),%r14
    3e93:	4d 0f af f5          	imul   %r13,%r14
    3e97:	83 be 08 01 00 00 00 	cmpl   $0x0,0x108(%rsi)
    3e9e:	0f 84 7c 00 00 00    	je     3f20 <_ZL19check_dynamic_rangePvmPmP24dynamic_flags_attributes+0x280>
    3ea4:	31 c0                	xor    %eax,%eax
    3ea6:	4c 8b 64 24 28       	mov    0x28(%rsp),%r12
    3eab:	0f 1f 44 00 00       	nopl   0x0(%rax,%rax,1)
    3eb0:	89 c3                	mov    %eax,%ebx
    3eb2:	48 89 d9             	mov    %rbx,%rcx
    3eb5:	48 c1 e1 05          	shl    $0x5,%rcx
    3eb9:	0f b7 8c 0e 10 01 00 	movzwl 0x110(%rsi,%rcx,1),%ecx
    3ec0:	00 
    3ec1:	66 39 e9             	cmp    %bp,%cx
    3ec4:	74 1a                	je     3ee0 <_ZL19check_dynamic_rangePvmPmP24dynamic_flags_attributes+0x240>
    3ec6:	83 c0 01             	add    $0x1,%eax
    3ec9:	49 83 c4 20          	add    $0x20,%r12
    3ecd:	3b 86 08 01 00 00    	cmp    0x108(%rsi),%eax
    3ed3:	72 db                	jb     3eb0 <_ZL19check_dynamic_rangePvmPmP24dynamic_flags_attributes+0x210>
    3ed5:	eb 49                	jmp    3f20 <_ZL19check_dynamic_rangePvmPmP24dynamic_flags_attributes+0x280>
    3ed7:	66 0f 1f 84 00 00 00 	nopw   0x0(%rax,%rax,1)
    3ede:	00 00 
    3ee0:	e8 1a d1 01 00       	callq  20fff <get_enclave_base>
    3ee5:	48 8b 54 24 20       	mov    0x20(%rsp),%rdx
    3eea:	48 8d 35 4f e7 01 00 	lea    0x1e74f(%rip),%rsi        # 22640 <g_global_data>
    3ef1:	48 c1 e3 05          	shl    $0x5,%rbx
    3ef5:	49 01 c6             	add    %rax,%r14
    3ef8:	4c 03 b4 1e 18 01 00 	add    0x118(%rsi,%rbx,1),%r14
    3eff:	00 
    3f00:	8b 84 1e 14 01 00 00 	mov    0x114(%rsi,%rbx,1),%eax
    3f07:	4c 3b 74 24 18       	cmp    0x18(%rsp),%r14
    3f0c:	77 12                	ja     3f20 <_ZL19check_dynamic_rangePvmPmP24dynamic_flags_attributes+0x280>
    3f0e:	48 c1 e0 0c          	shl    $0xc,%rax
    3f12:	4c 01 f0             	add    %r14,%rax
    3f15:	48 39 04 24          	cmp    %rax,(%rsp)
    3f19:	76 30                	jbe    3f4b <_ZL19check_dynamic_rangePvmPmP24dynamic_flags_attributes+0x2ab>
    3f1b:	0f 1f 44 00 00       	nopl   0x0(%rax,%rax,1)
    3f20:	49 83 c5 01          	add    $0x1,%r13
    3f24:	8b 42 fc             	mov    -0x4(%rdx),%eax
    3f27:	83 c0 01             	add    $0x1,%eax
    3f2a:	49 39 c5             	cmp    %rax,%r13
    3f2d:	0f 82 5d ff ff ff    	jb     3e90 <_ZL19check_dynamic_rangePvmPmP24dynamic_flags_attributes+0x1f0>
    3f33:	83 c5 01             	add    $0x1,%ebp
    3f36:	66 83 fd 13          	cmp    $0x13,%bp
    3f3a:	0f 82 40 ff ff ff    	jb     3e80 <_ZL19check_dynamic_rangePvmPmP24dynamic_flags_attributes+0x1e0>
    3f40:	41 bd ff ff ff ff    	mov    $0xffffffff,%r13d
    3f46:	e9 7a fd ff ff       	jmpq   3cc5 <_ZL19check_dynamic_rangePvmPmP24dynamic_flags_attributes+0x25>
    3f4b:	48 8b 4c 24 08       	mov    0x8(%rsp),%rcx
    3f50:	48 85 c9             	test   %rcx,%rcx
    3f53:	74 11                	je     3f66 <_ZL19check_dynamic_rangePvmPmP24dynamic_flags_attributes+0x2c6>
    3f55:	49 8b 04 24          	mov    (%r12),%rax
    3f59:	48 89 01             	mov    %rax,(%rcx)
    3f5c:	41 0f b7 44 24 ea    	movzwl -0x16(%r12),%eax
    3f62:	66 89 41 08          	mov    %ax,0x8(%rcx)
    3f66:	48 8b 4c 24 10       	mov    0x10(%rsp),%rcx
    3f6b:	48 85 c9             	test   %rcx,%rcx
    3f6e:	0f 84 44 02 00 00    	je     41b8 <_ZL19check_dynamic_rangePvmPmP24dynamic_flags_attributes+0x518>
    3f74:	44 89 e8             	mov    %r13d,%eax
    3f77:	48 0f af 02          	imul   (%rdx),%rax
    3f7b:	48 89 01             	mov    %rax,(%rcx)
    3f7e:	45 31 ed             	xor    %r13d,%r13d
    3f81:	e9 3f fd ff ff       	jmpq   3cc5 <_ZL19check_dynamic_rangePvmPmP24dynamic_flags_attributes+0x25>
    3f86:	e8 74 d0 01 00       	callq  20fff <get_enclave_base>
    3f8b:	48 8d 35 ae e6 01 00 	lea    0x1e6ae(%rip),%rsi        # 22640 <g_global_data>
    3f92:	49 03 06             	add    (%r14),%rax
    3f95:	41 8b 4e fc          	mov    -0x4(%r14),%ecx
    3f99:	48 39 d8             	cmp    %rbx,%rax
    3f9c:	77 11                	ja     3faf <_ZL19check_dynamic_rangePvmPmP24dynamic_flags_attributes+0x30f>
    3f9e:	48 c1 e1 0c          	shl    $0xc,%rcx
    3fa2:	48 01 c1             	add    %rax,%rcx
    3fa5:	48 39 0c 24          	cmp    %rcx,(%rsp)
    3fa9:	0f 86 c7 01 00 00    	jbe    4176 <_ZL19check_dynamic_rangePvmPmP24dynamic_flags_attributes+0x4d6>
    3faf:	83 be 08 01 00 00 00 	cmpl   $0x0,0x108(%rsi)
    3fb6:	74 67                	je     401f <_ZL19check_dynamic_rangePvmPmP24dynamic_flags_attributes+0x37f>
    3fb8:	41 be 18 01 00 00    	mov    $0x118,%r14d
    3fbe:	4c 03 35 23 20 22 00 	add    0x222023(%rip),%r14        # 225fe8 <_GLOBAL_OFFSET_TABLE_+0x28>
    3fc5:	31 ed                	xor    %ebp,%ebp
    3fc7:	66 0f 1f 84 00 00 00 	nopw   0x0(%rax,%rax,1)
    3fce:	00 00 
    3fd0:	89 e8                	mov    %ebp,%eax
    3fd2:	48 c1 e0 05          	shl    $0x5,%rax
    3fd6:	0f b7 84 06 10 01 00 	movzwl 0x110(%rsi,%rax,1),%eax
    3fdd:	00 
    3fde:	66 83 f8 0f          	cmp    $0xf,%ax
    3fe2:	74 12                	je     3ff6 <_ZL19check_dynamic_rangePvmPmP24dynamic_flags_attributes+0x356>
    3fe4:	48 83 c5 01          	add    $0x1,%rbp
    3fe8:	49 83 c6 20          	add    $0x20,%r14
    3fec:	3b ae 08 01 00 00    	cmp    0x108(%rsi),%ebp
    3ff2:	72 dc                	jb     3fd0 <_ZL19check_dynamic_rangePvmPmP24dynamic_flags_attributes+0x330>
    3ff4:	eb 29                	jmp    401f <_ZL19check_dynamic_rangePvmPmP24dynamic_flags_attributes+0x37f>
    3ff6:	e8 04 d0 01 00       	callq  20fff <get_enclave_base>
    3ffb:	48 8d 35 3e e6 01 00 	lea    0x1e63e(%rip),%rsi        # 22640 <g_global_data>
    4002:	49 03 06             	add    (%r14),%rax
    4005:	41 8b 4e fc          	mov    -0x4(%r14),%ecx
    4009:	48 39 d8             	cmp    %rbx,%rax
    400c:	77 11                	ja     401f <_ZL19check_dynamic_rangePvmPmP24dynamic_flags_attributes+0x37f>
    400e:	48 c1 e1 0c          	shl    $0xc,%rcx
    4012:	48 01 c1             	add    %rax,%rcx
    4015:	48 39 0c 24          	cmp    %rcx,(%rsp)
    4019:	0f 86 57 01 00 00    	jbe    4176 <_ZL19check_dynamic_rangePvmPmP24dynamic_flags_attributes+0x4d6>
    401f:	83 be 08 01 00 00 00 	cmpl   $0x0,0x108(%rsi)
    4026:	74 67                	je     408f <_ZL19check_dynamic_rangePvmPmP24dynamic_flags_attributes+0x3ef>
    4028:	41 be 18 01 00 00    	mov    $0x118,%r14d
    402e:	4c 03 35 b3 1f 22 00 	add    0x221fb3(%rip),%r14        # 225fe8 <_GLOBAL_OFFSET_TABLE_+0x28>
    4035:	31 ed                	xor    %ebp,%ebp
    4037:	66 0f 1f 84 00 00 00 	nopw   0x0(%rax,%rax,1)
    403e:	00 00 
    4040:	89 e8                	mov    %ebp,%eax
    4042:	48 c1 e0 05          	shl    $0x5,%rax
    4046:	0f b7 84 06 10 01 00 	movzwl 0x110(%rsi,%rax,1),%eax
    404d:	00 
    404e:	66 83 f8 10          	cmp    $0x10,%ax
    4052:	74 12                	je     4066 <_ZL19check_dynamic_rangePvmPmP24dynamic_flags_attributes+0x3c6>
    4054:	48 83 c5 01          	add    $0x1,%rbp
    4058:	49 83 c6 20          	add    $0x20,%r14
    405c:	3b ae 08 01 00 00    	cmp    0x108(%rsi),%ebp
    4062:	72 dc                	jb     4040 <_ZL19check_dynamic_rangePvmPmP24dynamic_flags_attributes+0x3a0>
    4064:	eb 29                	jmp    408f <_ZL19check_dynamic_rangePvmPmP24dynamic_flags_attributes+0x3ef>
    4066:	e8 94 cf 01 00       	callq  20fff <get_enclave_base>
    406b:	48 8d 35 ce e5 01 00 	lea    0x1e5ce(%rip),%rsi        # 22640 <g_global_data>
    4072:	49 03 06             	add    (%r14),%rax
    4075:	41 8b 4e fc          	mov    -0x4(%r14),%ecx
    4079:	48 39 d8             	cmp    %rbx,%rax
    407c:	77 11                	ja     408f <_ZL19check_dynamic_rangePvmPmP24dynamic_flags_attributes+0x3ef>
    407e:	48 c1 e1 0c          	shl    $0xc,%rcx
    4082:	48 01 c1             	add    %rax,%rcx
    4085:	48 39 0c 24          	cmp    %rcx,(%rsp)
    4089:	0f 86 e7 00 00 00    	jbe    4176 <_ZL19check_dynamic_rangePvmPmP24dynamic_flags_attributes+0x4d6>
    408f:	83 be 08 01 00 00 00 	cmpl   $0x0,0x108(%rsi)
    4096:	74 63                	je     40fb <_ZL19check_dynamic_rangePvmPmP24dynamic_flags_attributes+0x45b>
    4098:	41 be 18 01 00 00    	mov    $0x118,%r14d
    409e:	4c 03 35 43 1f 22 00 	add    0x221f43(%rip),%r14        # 225fe8 <_GLOBAL_OFFSET_TABLE_+0x28>
    40a5:	31 ed                	xor    %ebp,%ebp
    40a7:	66 0f 1f 84 00 00 00 	nopw   0x0(%rax,%rax,1)
    40ae:	00 00 
    40b0:	89 e8                	mov    %ebp,%eax
    40b2:	48 c1 e0 05          	shl    $0x5,%rax
    40b6:	0f b7 84 06 10 01 00 	movzwl 0x110(%rsi,%rax,1),%eax
    40bd:	00 
    40be:	66 83 f8 11          	cmp    $0x11,%ax
    40c2:	74 12                	je     40d6 <_ZL19check_dynamic_rangePvmPmP24dynamic_flags_attributes+0x436>
    40c4:	48 83 c5 01          	add    $0x1,%rbp
    40c8:	49 83 c6 20          	add    $0x20,%r14
    40cc:	3b ae 08 01 00 00    	cmp    0x108(%rsi),%ebp
    40d2:	72 dc                	jb     40b0 <_ZL19check_dynamic_rangePvmPmP24dynamic_flags_attributes+0x410>
    40d4:	eb 25                	jmp    40fb <_ZL19check_dynamic_rangePvmPmP24dynamic_flags_attributes+0x45b>
    40d6:	e8 24 cf 01 00       	callq  20fff <get_enclave_base>
    40db:	48 8d 35 5e e5 01 00 	lea    0x1e55e(%rip),%rsi        # 22640 <g_global_data>
    40e2:	49 03 06             	add    (%r14),%rax
    40e5:	41 8b 4e fc          	mov    -0x4(%r14),%ecx
    40e9:	48 39 d8             	cmp    %rbx,%rax
    40ec:	77 0d                	ja     40fb <_ZL19check_dynamic_rangePvmPmP24dynamic_flags_attributes+0x45b>
    40ee:	48 c1 e1 0c          	shl    $0xc,%rcx
    40f2:	48 01 c1             	add    %rax,%rcx
    40f5:	48 39 0c 24          	cmp    %rcx,(%rsp)
    40f9:	76 7b                	jbe    4176 <_ZL19check_dynamic_rangePvmPmP24dynamic_flags_attributes+0x4d6>
    40fb:	83 be 08 01 00 00 00 	cmpl   $0x0,0x108(%rsi)
    4102:	0f 84 bd fb ff ff    	je     3cc5 <_ZL19check_dynamic_rangePvmPmP24dynamic_flags_attributes+0x25>
    4108:	41 be 18 01 00 00    	mov    $0x118,%r14d
    410e:	4c 03 35 d3 1e 22 00 	add    0x221ed3(%rip),%r14        # 225fe8 <_GLOBAL_OFFSET_TABLE_+0x28>
    4115:	31 ed                	xor    %ebp,%ebp
    4117:	66 0f 1f 84 00 00 00 	nopw   0x0(%rax,%rax,1)
    411e:	00 00 
    4120:	89 e8                	mov    %ebp,%eax
    4122:	48 c1 e0 05          	shl    $0x5,%rax
    4126:	0f b7 84 06 10 01 00 	movzwl 0x110(%rsi,%rax,1),%eax
    412d:	00 
    412e:	66 83 f8 12          	cmp    $0x12,%ax
    4132:	74 15                	je     4149 <_ZL19check_dynamic_rangePvmPmP24dynamic_flags_attributes+0x4a9>
    4134:	48 83 c5 01          	add    $0x1,%rbp
    4138:	49 83 c6 20          	add    $0x20,%r14
    413c:	3b ae 08 01 00 00    	cmp    0x108(%rsi),%ebp
    4142:	72 dc                	jb     4120 <_ZL19check_dynamic_rangePvmPmP24dynamic_flags_attributes+0x480>
    4144:	e9 7c fb ff ff       	jmpq   3cc5 <_ZL19check_dynamic_rangePvmPmP24dynamic_flags_attributes+0x25>
    4149:	e8 b1 ce 01 00       	callq  20fff <get_enclave_base>
    414e:	49 03 06             	add    (%r14),%rax
    4151:	41 8b 4e fc          	mov    -0x4(%r14),%ecx
    4155:	48 39 d8             	cmp    %rbx,%rax
    4158:	0f 87 67 fb ff ff    	ja     3cc5 <_ZL19check_dynamic_rangePvmPmP24dynamic_flags_attributes+0x25>
    415e:	48 c1 e1 0c          	shl    $0xc,%rcx
    4162:	48 01 c1             	add    %rax,%rcx
    4165:	48 39 0c 24          	cmp    %rcx,(%rsp)
    4169:	48 8d 35 d0 e4 01 00 	lea    0x1e4d0(%rip),%rsi        # 22640 <g_global_data>
    4170:	0f 87 4f fb ff ff    	ja     3cc5 <_ZL19check_dynamic_rangePvmPmP24dynamic_flags_attributes+0x25>
    4176:	48 8b 4c 24 08       	mov    0x8(%rsp),%rcx
    417b:	48 85 c9             	test   %rcx,%rcx
    417e:	74 1b                	je     419b <_ZL19check_dynamic_rangePvmPmP24dynamic_flags_attributes+0x4fb>
    4180:	48 c1 e5 05          	shl    $0x5,%rbp
    4184:	48 8b 84 2e 28 01 00 	mov    0x128(%rsi,%rbp,1),%rax
    418b:	00 
    418c:	48 89 01             	mov    %rax,(%rcx)
    418f:	0f b7 84 2e 12 01 00 	movzwl 0x112(%rsi,%rbp,1),%eax
    4196:	00 
    4197:	66 89 41 08          	mov    %ax,0x8(%rcx)
    419b:	45 31 ed             	xor    %r13d,%r13d
    419e:	48 8b 44 24 10       	mov    0x10(%rsp),%rax
    41a3:	48 85 c0             	test   %rax,%rax
    41a6:	0f 84 19 fb ff ff    	je     3cc5 <_ZL19check_dynamic_rangePvmPmP24dynamic_flags_attributes+0x25>
    41ac:	48 c7 00 00 00 00 00 	movq   $0x0,(%rax)
    41b3:	e9 0d fb ff ff       	jmpq   3cc5 <_ZL19check_dynamic_rangePvmPmP24dynamic_flags_attributes+0x25>
    41b8:	45 31 ed             	xor    %r13d,%r13d
    41bb:	e9 05 fb ff ff       	jmpq   3cc5 <_ZL19check_dynamic_rangePvmPmP24dynamic_flags_attributes+0x25>
    41c0:	45 31 ed             	xor    %r13d,%r13d
    41c3:	48 8b 4c 24 08       	mov    0x8(%rsp),%rcx
    41c8:	48 85 c9             	test   %rcx,%rcx
    41cb:	0f 84 f4 fa ff ff    	je     3cc5 <_ZL19check_dynamic_rangePvmPmP24dynamic_flags_attributes+0x25>
    41d1:	48 8b 45 16          	mov    0x16(%rbp),%rax
    41d5:	48 89 01             	mov    %rax,(%rcx)
    41d8:	0f b7 45 00          	movzwl 0x0(%rbp),%eax
    41dc:	66 89 41 08          	mov    %ax,0x8(%rcx)
    41e0:	e9 e0 fa ff ff       	jmpq   3cc5 <_ZL19check_dynamic_rangePvmPmP24dynamic_flags_attributes+0x25>
    41e5:	66 2e 0f 1f 84 00 00 	nopw   %cs:0x0(%rax,%rax,1)
    41ec:	00 00 00 
    41ef:	90                   	nop

00000000000041f0 <get_dynamic_stack_max_page>:
    41f0:	48 8d 05 49 e4 01 00 	lea    0x1e449(%rip),%rax        # 22640 <g_global_data>
    41f7:	83 b8 08 01 00 00 00 	cmpl   $0x0,0x108(%rax)
    41fe:	74 36                	je     4236 <get_dynamic_stack_max_page+0x46>
    4200:	b9 14 01 00 00       	mov    $0x114,%ecx
    4205:	48 03 0d dc 1d 22 00 	add    0x221ddc(%rip),%rcx        # 225fe8 <_GLOBAL_OFFSET_TABLE_+0x28>
    420c:	31 d2                	xor    %edx,%edx
    420e:	66 90                	xchg   %ax,%ax
    4210:	89 d6                	mov    %edx,%esi
    4212:	48 c1 e6 05          	shl    $0x5,%rsi
    4216:	0f b7 b4 30 10 01 00 	movzwl 0x110(%rax,%rsi,1),%esi
    421d:	00 
    421e:	66 83 fe 07          	cmp    $0x7,%si
    4222:	74 15                	je     4239 <get_dynamic_stack_max_page+0x49>
    4224:	83 c2 01             	add    $0x1,%edx
    4227:	48 83 c1 20          	add    $0x20,%rcx
    422b:	3b 90 08 01 00 00    	cmp    0x108(%rax),%edx
    4231:	72 dd                	jb     4210 <get_dynamic_stack_max_page+0x20>
    4233:	31 c0                	xor    %eax,%eax
    4235:	c3                   	retq   
    4236:	31 c0                	xor    %eax,%eax
    4238:	c3                   	retq   
    4239:	8b 01                	mov    (%rcx),%eax
    423b:	c3                   	retq   
    423c:	0f 1f 40 00          	nopl   0x0(%rax)

0000000000004240 <apply_pages_within_exception>:
    4240:	55                   	push   %rbp
    4241:	48 89 e5             	mov    %rsp,%rbp
    4244:	41 56                	push   %r14
    4246:	41 54                	push   %r12
    4248:	53                   	push   %rbx
    4249:	48 83 e4 c0          	and    $0xffffffffffffffc0,%rsp
    424d:	48 81 ec 80 00 00 00 	sub    $0x80,%rsp
    4254:	41 bc ff ff ff ff    	mov    $0xffffffff,%r12d
    425a:	48 85 ff             	test   %rdi,%rdi
    425d:	74 6f                	je     42ce <apply_pages_within_exception+0x8e>
    425f:	49 89 f6             	mov    %rsi,%r14
    4262:	48 89 fb             	mov    %rdi,%rbx
    4265:	31 d2                	xor    %edx,%edx
    4267:	31 c9                	xor    %ecx,%ecx
    4269:	e8 32 fa ff ff       	callq  3ca0 <_ZL19check_dynamic_rangePvmPmP24dynamic_flags_attributes>
    426e:	85 c0                	test   %eax,%eax
    4270:	75 5c                	jne    42ce <apply_pages_within_exception+0x8e>
    4272:	49 c1 e6 0c          	shl    $0xc,%r14
    4276:	49 01 de             	add    %rbx,%r14
    4279:	b8 0b 02 00 00       	mov    $0x20b,%eax
    427e:	66 48 0f 6e c0       	movq   %rax,%xmm0
    4283:	66 0f 7f 04 24       	movdqa %xmm0,(%rsp)
    4288:	66 0f ef c0          	pxor   %xmm0,%xmm0
    428c:	66 0f 7f 44 24 10    	movdqa %xmm0,0x10(%rsp)
    4292:	66 0f 7f 44 24 20    	movdqa %xmm0,0x20(%rsp)
    4298:	66 0f 7f 44 24 30    	movdqa %xmm0,0x30(%rsp)
    429e:	49 39 de             	cmp    %rbx,%r14
    42a1:	76 28                	jbe    42cb <apply_pages_within_exception+0x8b>
    42a3:	49 89 e4             	mov    %rsp,%r12
    42a6:	66 2e 0f 1f 84 00 00 	nopw   %cs:0x0(%rax,%rax,1)
    42ad:	00 00 00 
    42b0:	4c 89 e7             	mov    %r12,%rdi
    42b3:	48 89 de             	mov    %rbx,%rsi
    42b6:	e8 3f d0 01 00       	callq  212fa <do_eaccept>
    42bb:	85 c0                	test   %eax,%eax
    42bd:	75 1d                	jne    42dc <apply_pages_within_exception+0x9c>
    42bf:	48 81 c3 00 10 00 00 	add    $0x1000,%rbx
    42c6:	4c 39 f3             	cmp    %r14,%rbx
    42c9:	72 e5                	jb     42b0 <apply_pages_within_exception+0x70>
    42cb:	45 31 e4             	xor    %r12d,%r12d
    42ce:	44 89 e0             	mov    %r12d,%eax
    42d1:	48 8d 65 e8          	lea    -0x18(%rbp),%rsp
    42d5:	5b                   	pop    %rbx
    42d6:	41 5c                	pop    %r12
    42d8:	41 5e                	pop    %r14
    42da:	5d                   	pop    %rbp
    42db:	c3                   	retq   
    42dc:	e8 52 d0 01 00       	callq  21333 <abort>
    42e1:	66 2e 0f 1f 84 00 00 	nopw   %cs:0x0(%rax,%rax,1)
    42e8:	00 00 00 
    42eb:	0f 1f 44 00 00       	nopl   0x0(%rax,%rax,1)

00000000000042f0 <apply_EPC_pages>:
    42f0:	55                   	push   %rbp
    42f1:	48 89 e5             	mov    %rsp,%rbp
    42f4:	41 56                	push   %r14
    42f6:	41 55                	push   %r13
    42f8:	41 54                	push   %r12
    42fa:	53                   	push   %rbx
    42fb:	48 83 e4 c0          	and    $0xffffffffffffffc0,%rsp
    42ff:	48 81 ec 80 00 00 00 	sub    $0x80,%rsp
    4306:	41 bc ff ff ff ff    	mov    $0xffffffff,%r12d
    430c:	48 85 ff             	test   %rdi,%rdi
    430f:	0f 84 d9 00 00 00    	je     43ee <apply_EPC_pages+0xfe>
    4315:	49 89 f6             	mov    %rsi,%r14
    4318:	49 89 fd             	mov    %rdi,%r13
    431b:	48 8d 4c 24 40       	lea    0x40(%rsp),%rcx
    4320:	31 d2                	xor    %edx,%edx
    4322:	e8 79 f9 ff ff       	callq  3ca0 <_ZL19check_dynamic_rangePvmPmP24dynamic_flags_attributes>
    4327:	85 c0                	test   %eax,%eax
    4329:	0f 85 bf 00 00 00    	jne    43ee <apply_EPC_pages+0xfe>
    432f:	49 c1 e6 0c          	shl    $0xc,%r14
    4333:	f6 44 24 48 40       	testb  $0x40,0x48(%rsp)
    4338:	75 5a                	jne    4394 <apply_EPC_pages+0xa4>
    433a:	b8 0b 02 00 00       	mov    $0x20b,%eax
    433f:	66 48 0f 6e c0       	movq   %rax,%xmm0
    4344:	66 0f 7f 04 24       	movdqa %xmm0,(%rsp)
    4349:	66 0f ef c0          	pxor   %xmm0,%xmm0
    434d:	66 0f 7f 44 24 10    	movdqa %xmm0,0x10(%rsp)
    4353:	66 0f 7f 44 24 20    	movdqa %xmm0,0x20(%rsp)
    4359:	66 0f 7f 44 24 30    	movdqa %xmm0,0x30(%rsp)
    435f:	4b 8d 1c 2e          	lea    (%r14,%r13,1),%rbx
    4363:	48 81 c3 00 f0 ff ff 	add    $0xfffffffffffff000,%rbx
    436a:	49 89 e6             	mov    %rsp,%r14
    436d:	0f 1f 00             	nopl   (%rax)
    4370:	48 8d 83 00 10 00 00 	lea    0x1000(%rbx),%rax
    4377:	4c 39 e8             	cmp    %r13,%rax
    437a:	76 6f                	jbe    43eb <apply_EPC_pages+0xfb>
    437c:	4c 89 f7             	mov    %r14,%rdi
    437f:	48 89 de             	mov    %rbx,%rsi
    4382:	e8 73 cf 01 00       	callq  212fa <do_eaccept>
    4387:	48 81 c3 00 f0 ff ff 	add    $0xfffffffffffff000,%rbx
    438e:	85 c0                	test   %eax,%eax
    4390:	74 de                	je     4370 <apply_EPC_pages+0x80>
    4392:	eb 6a                	jmp    43fe <apply_EPC_pages+0x10e>
    4394:	4d 01 ee             	add    %r13,%r14
    4397:	b8 0b 02 00 00       	mov    $0x20b,%eax
    439c:	66 48 0f 6e c0       	movq   %rax,%xmm0
    43a1:	66 0f 7f 04 24       	movdqa %xmm0,(%rsp)
    43a6:	66 0f ef c0          	pxor   %xmm0,%xmm0
    43aa:	66 0f 7f 44 24 10    	movdqa %xmm0,0x10(%rsp)
    43b0:	66 0f 7f 44 24 20    	movdqa %xmm0,0x20(%rsp)
    43b6:	66 0f 7f 44 24 30    	movdqa %xmm0,0x30(%rsp)
    43bc:	4d 39 ee             	cmp    %r13,%r14
    43bf:	76 2a                	jbe    43eb <apply_EPC_pages+0xfb>
    43c1:	48 89 e3             	mov    %rsp,%rbx
    43c4:	66 2e 0f 1f 84 00 00 	nopw   %cs:0x0(%rax,%rax,1)
    43cb:	00 00 00 
    43ce:	66 90                	xchg   %ax,%ax
    43d0:	48 89 df             	mov    %rbx,%rdi
    43d3:	4c 89 ee             	mov    %r13,%rsi
    43d6:	e8 1f cf 01 00       	callq  212fa <do_eaccept>
    43db:	85 c0                	test   %eax,%eax
    43dd:	75 1f                	jne    43fe <apply_EPC_pages+0x10e>
    43df:	49 81 c5 00 10 00 00 	add    $0x1000,%r13
    43e6:	4d 39 f5             	cmp    %r14,%r13
    43e9:	72 e5                	jb     43d0 <apply_EPC_pages+0xe0>
    43eb:	45 31 e4             	xor    %r12d,%r12d
    43ee:	44 89 e0             	mov    %r12d,%eax
    43f1:	48 8d 65 e0          	lea    -0x20(%rbp),%rsp
    43f5:	5b                   	pop    %rbx
    43f6:	41 5c                	pop    %r12
    43f8:	41 5d                	pop    %r13
    43fa:	41 5e                	pop    %r14
    43fc:	5d                   	pop    %rbp
    43fd:	c3                   	retq   
    43fe:	e8 30 cf 01 00       	callq  21333 <abort>
    4403:	66 2e 0f 1f 84 00 00 	nopw   %cs:0x0(%rax,%rax,1)
    440a:	00 00 00 
    440d:	0f 1f 00             	nopl   (%rax)

0000000000004410 <trim_EPC_pages>:
    4410:	55                   	push   %rbp
    4411:	48 89 e5             	mov    %rsp,%rbp
    4414:	41 56                	push   %r14
    4416:	41 55                	push   %r13
    4418:	41 54                	push   %r12
    441a:	53                   	push   %rbx
    441b:	48 83 e4 c0          	and    $0xffffffffffffffc0,%rsp
    441f:	48 81 ec 80 00 00 00 	sub    $0x80,%rsp
    4426:	41 bc ff ff ff ff    	mov    $0xffffffff,%r12d
    442c:	48 85 ff             	test   %rdi,%rdi
    442f:	0f 84 a7 00 00 00    	je     44dc <trim_EPC_pages+0xcc>
    4435:	49 89 f6             	mov    %rsi,%r14
    4438:	49 89 fd             	mov    %rdi,%r13
    443b:	31 d2                	xor    %edx,%edx
    443d:	31 c9                	xor    %ecx,%ecx
    443f:	e8 5c f8 ff ff       	callq  3ca0 <_ZL19check_dynamic_rangePvmPmP24dynamic_flags_attributes>
    4444:	85 c0                	test   %eax,%eax
    4446:	0f 85 90 00 00 00    	jne    44dc <trim_EPC_pages+0xcc>
    444c:	49 c1 e6 0c          	shl    $0xc,%r14
    4450:	4d 01 ee             	add    %r13,%r14
    4453:	4c 89 ef             	mov    %r13,%rdi
    4456:	4c 89 f6             	mov    %r14,%rsi
    4459:	e8 92 0b 00 00       	callq  4ff0 <trim_range_ocall>
    445e:	b8 10 04 00 00       	mov    $0x410,%eax
    4463:	66 48 0f 6e c0       	movq   %rax,%xmm0
    4468:	66 0f 7f 04 24       	movdqa %xmm0,(%rsp)
    446d:	66 0f ef c0          	pxor   %xmm0,%xmm0
    4471:	66 0f 7f 44 24 10    	movdqa %xmm0,0x10(%rsp)
    4477:	66 0f 7f 44 24 20    	movdqa %xmm0,0x20(%rsp)
    447d:	66 0f 7f 44 24 30    	movdqa %xmm0,0x30(%rsp)
    4483:	4d 39 ee             	cmp    %r13,%r14
    4486:	76 51                	jbe    44d9 <trim_EPC_pages+0xc9>
    4488:	49 89 e4             	mov    %rsp,%r12
    448b:	4c 89 eb             	mov    %r13,%rbx
    448e:	66 90                	xchg   %ax,%ax
    4490:	4c 89 e7             	mov    %r12,%rdi
    4493:	48 89 de             	mov    %rbx,%rsi
    4496:	e8 5f ce 01 00       	callq  212fa <do_eaccept>
    449b:	85 c0                	test   %eax,%eax
    449d:	75 4d                	jne    44ec <trim_EPC_pages+0xdc>
    449f:	48 81 c3 00 10 00 00 	add    $0x1000,%rbx
    44a6:	4c 39 f3             	cmp    %r14,%rbx
    44a9:	72 e5                	jb     4490 <trim_EPC_pages+0x80>
    44ab:	45 31 e4             	xor    %r12d,%r12d
    44ae:	4d 39 ee             	cmp    %r13,%r14
    44b1:	76 29                	jbe    44dc <trim_EPC_pages+0xcc>
    44b3:	66 2e 0f 1f 84 00 00 	nopw   %cs:0x0(%rax,%rax,1)
    44ba:	00 00 00 
    44bd:	0f 1f 00             	nopl   (%rax)
    44c0:	4c 89 ef             	mov    %r13,%rdi
    44c3:	e8 78 0b 00 00       	callq  5040 <trim_range_commit_ocall>
    44c8:	49 81 c5 00 10 00 00 	add    $0x1000,%r13
    44cf:	4d 39 f5             	cmp    %r14,%r13
    44d2:	72 ec                	jb     44c0 <trim_EPC_pages+0xb0>
    44d4:	41 89 c4             	mov    %eax,%r12d
    44d7:	eb 03                	jmp    44dc <trim_EPC_pages+0xcc>
    44d9:	45 31 e4             	xor    %r12d,%r12d
    44dc:	44 89 e0             	mov    %r12d,%eax
    44df:	48 8d 65 e0          	lea    -0x20(%rbp),%rsp
    44e3:	5b                   	pop    %rbx
    44e4:	41 5c                	pop    %r12
    44e6:	41 5d                	pop    %r13
    44e8:	41 5e                	pop    %r14
    44ea:	5d                   	pop    %rbp
    44eb:	c3                   	retq   
    44ec:	e8 42 ce 01 00       	callq  21333 <abort>
    44f1:	66 2e 0f 1f 84 00 00 	nopw   %cs:0x0(%rax,%rax,1)
    44f8:	00 00 00 
    44fb:	0f 1f 44 00 00       	nopl   0x0(%rax,%rax,1)

0000000000004500 <do_add_thread>:
    4500:	55                   	push   %rbp
    4501:	48 89 e5             	mov    %rsp,%rbp
    4504:	41 56                	push   %r14
    4506:	41 55                	push   %r13
    4508:	41 54                	push   %r12
    450a:	53                   	push   %rbx
    450b:	48 83 e4 c0          	and    $0xffffffffffffffc0,%rsp
    450f:	48 81 ec c0 00 00 00 	sub    $0xc0,%rsp
    4516:	49 89 fe             	mov    %rdi,%r14
    4519:	48 c7 44 24 28 00 00 	movq   $0x0,0x28(%rsp)
    4520:	00 00 
    4522:	e8 d8 ca 01 00       	callq  20fff <get_enclave_base>
    4527:	48 89 c3             	mov    %rax,%rbx
    452a:	48 8d 54 24 28       	lea    0x28(%rsp),%rdx
    452f:	be 01 00 00 00       	mov    $0x1,%esi
    4534:	4c 89 f7             	mov    %r14,%rdi
    4537:	31 c9                	xor    %ecx,%ecx
    4539:	e8 62 f7 ff ff       	callq  3ca0 <_ZL19check_dynamic_rangePvmPmP24dynamic_flags_attributes>
    453e:	be 01 00 00 00       	mov    $0x1,%esi
    4543:	85 c0                	test   %eax,%eax
    4545:	74 0f                	je     4556 <do_add_thread+0x56>
    4547:	89 f0                	mov    %esi,%eax
    4549:	48 8d 65 e0          	lea    -0x20(%rbp),%rsp
    454d:	5b                   	pop    %rbx
    454e:	41 5c                	pop    %r12
    4550:	41 5d                	pop    %r13
    4552:	41 5e                	pop    %r14
    4554:	5d                   	pop    %rbp
    4555:	c3                   	retq   
    4556:	4c 8d 2d e3 e0 01 00 	lea    0x1e0e3(%rip),%r13        # 22640 <g_global_data>
    455d:	41 83 bd 08 01 00 00 	cmpl   $0x0,0x108(%r13)
    4564:	00 
    4565:	74 e0                	je     4547 <do_add_thread+0x47>
    4567:	b8 18 01 00 00       	mov    $0x118,%eax
    456c:	48 03 05 75 1a 22 00 	add    0x221a75(%rip),%rax        # 225fe8 <_GLOBAL_OFFSET_TABLE_+0x28>
    4573:	31 c9                	xor    %ecx,%ecx
    4575:	66 2e 0f 1f 84 00 00 	nopw   %cs:0x0(%rax,%rax,1)
    457c:	00 00 00 
    457f:	90                   	nop
    4580:	89 ca                	mov    %ecx,%edx
    4582:	48 c1 e2 05          	shl    $0x5,%rdx
    4586:	41 0f b7 94 15 10 01 	movzwl 0x110(%r13,%rdx,1),%edx
    458d:	00 00 
    458f:	66 83 fa 0e          	cmp    $0xe,%dx
    4593:	74 12                	je     45a7 <do_add_thread+0xa7>
    4595:	83 c1 01             	add    $0x1,%ecx
    4598:	48 83 c0 20          	add    $0x20,%rax
    459c:	41 3b 8d 08 01 00 00 	cmp    0x108(%r13),%ecx
    45a3:	72 db                	jb     4580 <do_add_thread+0x80>
    45a5:	eb a0                	jmp    4547 <do_add_thread+0x47>
    45a7:	48 8b 00             	mov    (%rax),%rax
    45aa:	48 01 d8             	add    %rbx,%rax
    45ad:	48 03 44 24 28       	add    0x28(%rsp),%rax
    45b2:	4c 39 f0             	cmp    %r14,%rax
    45b5:	75 90                	jne    4547 <do_add_thread+0x47>
    45b7:	48 89 44 24 38       	mov    %rax,0x38(%rsp)
    45bc:	48 89 5c 24 30       	mov    %rbx,0x30(%rsp)
    45c1:	66 41 bc 0e 00       	mov    $0xe,%r12w
    45c6:	bb 18 01 00 00       	mov    $0x118,%ebx
    45cb:	48 03 1d 16 1a 22 00 	add    0x221a16(%rip),%rbx        # 225fe8 <_GLOBAL_OFFSET_TABLE_+0x28>
    45d2:	66 2e 0f 1f 84 00 00 	nopw   %cs:0x0(%rax,%rax,1)
    45d9:	00 00 00 
    45dc:	0f 1f 40 00          	nopl   0x0(%rax)
    45e0:	41 83 bd 08 01 00 00 	cmpl   $0x0,0x108(%r13)
    45e7:	00 
    45e8:	74 66                	je     4650 <do_add_thread+0x150>
    45ea:	31 c9                	xor    %ecx,%ecx
    45ec:	48 89 d8             	mov    %rbx,%rax
    45ef:	90                   	nop
    45f0:	89 ca                	mov    %ecx,%edx
    45f2:	48 c1 e2 05          	shl    $0x5,%rdx
    45f6:	41 0f b7 94 15 10 01 	movzwl 0x110(%r13,%rdx,1),%edx
    45fd:	00 00 
    45ff:	66 44 39 e2          	cmp    %r12w,%dx
    4603:	74 1b                	je     4620 <do_add_thread+0x120>
    4605:	83 c1 01             	add    $0x1,%ecx
    4608:	48 83 c0 20          	add    $0x20,%rax
    460c:	41 3b 8d 08 01 00 00 	cmp    0x108(%r13),%ecx
    4613:	72 db                	jb     45f0 <do_add_thread+0xf0>
    4615:	eb 39                	jmp    4650 <do_add_thread+0x150>
    4617:	66 0f 1f 84 00 00 00 	nopw   0x0(%rax,%rax,1)
    461e:	00 00 
    4620:	0f b7 48 fa          	movzwl -0x6(%rax),%ecx
    4624:	f6 c1 20             	test   $0x20,%cl
    4627:	74 27                	je     4650 <do_add_thread+0x150>
    4629:	48 8b 38             	mov    (%rax),%rdi
    462c:	48 03 7c 24 30       	add    0x30(%rsp),%rdi
    4631:	48 03 7c 24 28       	add    0x28(%rsp),%rdi
    4636:	8b 70 fc             	mov    -0x4(%rax),%esi
    4639:	e8 b2 fc ff ff       	callq  42f0 <apply_EPC_pages>
    463e:	85 c0                	test   %eax,%eax
    4640:	0f 85 d8 00 00 00    	jne    471e <do_add_thread+0x21e>
    4646:	66 2e 0f 1f 84 00 00 	nopw   %cs:0x0(%rax,%rax,1)
    464d:	00 00 00 
    4650:	41 83 c4 01          	add    $0x1,%r12d
    4654:	66 41 83 fc 13       	cmp    $0x13,%r12w
    4659:	72 85                	jb     45e0 <do_add_thread+0xe0>
    465b:	be c0 00 00 00       	mov    $0xc0,%esi
    4660:	48 03 35 81 19 22 00 	add    0x221981(%rip),%rsi        # 225fe8 <_GLOBAL_OFFSET_TABLE_+0x28>
    4667:	ba 48 00 00 00       	mov    $0x48,%edx
    466c:	4c 89 f7             	mov    %r14,%rdi
    466f:	e8 cc 4a 00 00       	callq  9140 <memcpy>
    4674:	4c 8b 64 24 38       	mov    0x38(%rsp),%r12
    4679:	4c 89 e0             	mov    %r12,%rax
    467c:	48 2b 44 24 30       	sub    0x30(%rsp),%rax
    4681:	49 01 46 10          	add    %rax,0x10(%r14)
    4685:	f3 41 0f 6f 46 30    	movdqu 0x30(%r14),%xmm0
    468b:	66 48 0f 6e c8       	movq   %rax,%xmm1
    4690:	66 0f 70 c9 44       	pshufd $0x44,%xmm1,%xmm1
    4695:	66 0f d4 c8          	paddq  %xmm0,%xmm1
    4699:	f3 41 0f 7f 4e 30    	movdqu %xmm1,0x30(%r14)
    469f:	31 ff                	xor    %edi,%edi
    46a1:	4c 89 f6             	mov    %r14,%rsi
    46a4:	e8 57 08 00 00       	callq  4f00 <sgx_ocall>
    46a9:	85 c0                	test   %eax,%eax
    46ab:	be 01 00 00 00       	mov    $0x1,%esi
    46b0:	0f 85 91 fe ff ff    	jne    4547 <do_add_thread+0x47>
    46b6:	b8 10 01 00 00       	mov    $0x110,%eax
    46bb:	66 48 0f 6e c0       	movq   %rax,%xmm0
    46c0:	66 0f 7f 44 24 40    	movdqa %xmm0,0x40(%rsp)
    46c6:	66 0f ef c0          	pxor   %xmm0,%xmm0
    46ca:	66 0f 7f 44 24 50    	movdqa %xmm0,0x50(%rsp)
    46d0:	66 0f 7f 44 24 60    	movdqa %xmm0,0x60(%rsp)
    46d6:	66 0f 7f 44 24 70    	movdqa %xmm0,0x70(%rsp)
    46dc:	4c 8d 74 24 40       	lea    0x40(%rsp),%r14
    46e1:	4c 89 e3             	mov    %r12,%rbx
    46e4:	66 2e 0f 1f 84 00 00 	nopw   %cs:0x0(%rax,%rax,1)
    46eb:	00 00 00 
    46ee:	66 90                	xchg   %ax,%ax
    46f0:	48 8d 83 00 10 00 00 	lea    0x1000(%rbx),%rax
    46f7:	4c 39 e0             	cmp    %r12,%rax
    46fa:	76 1b                	jbe    4717 <do_add_thread+0x217>
    46fc:	4c 89 f7             	mov    %r14,%rdi
    46ff:	48 89 de             	mov    %rbx,%rsi
    4702:	e8 f3 cb 01 00       	callq  212fa <do_eaccept>
    4707:	48 81 c3 00 f0 ff ff 	add    $0xfffffffffffff000,%rbx
    470e:	85 c0                	test   %eax,%eax
    4710:	74 de                	je     46f0 <do_add_thread+0x1f0>
    4712:	e8 1c cc 01 00       	callq  21333 <abort>
    4717:	31 f6                	xor    %esi,%esi
    4719:	e9 29 fe ff ff       	jmpq   4547 <do_add_thread+0x47>
    471e:	be 01 00 00 00       	mov    $0x1,%esi
    4723:	e9 1f fe ff ff       	jmpq   4547 <do_add_thread+0x47>
    4728:	0f 1f 84 00 00 00 00 	nopl   0x0(%rax,%rax,1)
    472f:	00 

0000000000004730 <do_init_thread>:
    4730:	55                   	push   %rbp
    4731:	41 56                	push   %r14
    4733:	41 55                	push   %r13
    4735:	41 54                	push   %r12
    4737:	53                   	push   %rbx
    4738:	48 83 ec 20          	sub    $0x20,%rsp
    473c:	41 89 f4             	mov    %esi,%r12d
    473f:	48 89 fb             	mov    %rdi,%rbx
    4742:	48 8d 35 f7 de 01 00 	lea    0x1def7(%rip),%rsi        # 22640 <g_global_data>
    4749:	48 8b 6e 20          	mov    0x20(%rsi),%rbp
    474d:	48 83 c6 20          	add    $0x20,%rsi
    4751:	4c 8d 34 2f          	lea    (%rdi,%rbp,1),%r14
    4755:	4c 8b ac 3d 98 00 00 	mov    0x98(%rbp,%rdi,1),%r13
    475c:	00 
    475d:	0f 10 44 3d 28       	movups 0x28(%rbp,%rdi,1),%xmm0
    4762:	0f 29 44 24 10       	movaps %xmm0,0x10(%rsp)
    4767:	ba a0 00 00 00       	mov    $0xa0,%edx
    476c:	4c 89 f7             	mov    %r14,%rdi
    476f:	e8 cc 49 00 00       	callq  9140 <memcpy>
    4774:	48 01 5c 1d 00       	add    %rbx,0x0(%rbp,%rbx,1)
    4779:	66 48 0f 6e c3       	movq   %rbx,%xmm0
    477e:	66 0f 70 c0 44       	pshufd $0x44,%xmm0,%xmm0
    4783:	f3 0f 6f 4c 1d 08    	movdqu 0x8(%rbp,%rbx,1),%xmm1
    4789:	f3 0f 6f 54 1d 18    	movdqu 0x18(%rbp,%rbx,1),%xmm2
    478f:	f3 0f 6f 5c 1d 50    	movdqu 0x50(%rbp,%rbx,1),%xmm3
    4795:	66 0f d4 c8          	paddq  %xmm0,%xmm1
    4799:	66 0f d4 d0          	paddq  %xmm0,%xmm2
    479d:	66 0f d6 94 1d 98 00 	movq   %xmm2,0x98(%rbp,%rbx,1)
    47a4:	00 00 
    47a6:	f3 0f 7f 54 1d 18    	movdqu %xmm2,0x18(%rbp,%rbx,1)
    47ac:	66 0f d4 d8          	paddq  %xmm0,%xmm3
    47b0:	f3 0f 7f 5c 1d 50    	movdqu %xmm3,0x50(%rbp,%rbx,1)
    47b6:	66 0f d4 0d 22 cf 01 	paddq  0x1cf22(%rip),%xmm1        # 216e0 <g_dyn_entry_table+0x340>
    47bd:	00 
    47be:	f3 0f 7f 4c 1d 08    	movdqu %xmm1,0x8(%rbp,%rbx,1)
    47c4:	0f 28 44 24 10       	movaps 0x10(%rsp),%xmm0
    47c9:	0f 11 44 1d 28       	movups %xmm0,0x28(%rbp,%rbx,1)
    47ce:	48 8d 05 53 14 22 00 	lea    0x221453(%rip),%rax        # 225c28 <__intel_security_cookie>
    47d5:	48 8b 00             	mov    (%rax),%rax
    47d8:	48 89 83 58 fd fe ff 	mov    %rax,-0x102a8(%rbx)
    47df:	45 84 e4             	test   %r12b,%r12b
    47e2:	74 08                	je     47ec <do_init_thread+0xbc>
    47e4:	49 c7 46 30 01 00 00 	movq   $0x1,0x30(%r14)
    47eb:	00 
    47ec:	4d 85 ed             	test   %r13,%r13
    47ef:	74 09                	je     47fa <do_init_thread+0xca>
    47f1:	4d 89 ae 98 00 00 00 	mov    %r13,0x98(%r14)
    47f8:	eb 2f                	jmp    4829 <do_init_thread+0xf9>
    47fa:	48 8d 05 1f 14 22 00 	lea    0x22141f(%rip),%rax        # 225c20 <EDMM_supported>
    4801:	83 38 00             	cmpl   $0x0,(%rax)
    4804:	74 23                	je     4829 <do_init_thread+0xf9>
    4806:	45 84 e4             	test   %r12b,%r12b
    4809:	75 0c                	jne    4817 <do_init_thread+0xe7>
    480b:	48 89 df             	mov    %rbx,%rdi
    480e:	e8 4d f4 ff ff       	callq  3c60 <is_dynamic_thread>
    4813:	85 c0                	test   %eax,%eax
    4815:	74 12                	je     4829 <do_init_thread+0xf9>
    4817:	e8 d4 f9 ff ff       	callq  41f0 <get_dynamic_stack_max_page>
    481c:	89 c0                	mov    %eax,%eax
    481e:	48 c1 e0 0c          	shl    $0xc,%rax
    4822:	49 01 86 98 00 00 00 	add    %rax,0x98(%r14)
    4829:	48 c7 04 24 00 00 00 	movq   $0x0,(%rsp)
    4830:	00 
    4831:	48 c7 44 24 08 00 00 	movq   $0x0,0x8(%rsp)
    4838:	00 00 
    483a:	48 8b 3d 97 17 22 00 	mov    0x221797(%rip),%rdi        # 225fd8 <_GLOBAL_OFFSET_TABLE_+0x18>
    4841:	48 89 e6             	mov    %rsp,%rsi
    4844:	48 8d 54 24 08       	lea    0x8(%rsp),%rdx
    4849:	e8 62 12 00 00       	callq  5ab0 <elf_tls_info>
    484e:	bb 01 00 00 00       	mov    $0x1,%ebx
    4853:	85 c0                	test   %eax,%eax
    4855:	74 0f                	je     4866 <do_init_thread+0x136>
    4857:	89 d8                	mov    %ebx,%eax
    4859:	48 83 c4 20          	add    $0x20,%rsp
    485d:	5b                   	pop    %rbx
    485e:	41 5c                	pop    %r12
    4860:	41 5d                	pop    %r13
    4862:	41 5e                	pop    %r14
    4864:	5d                   	pop    %rbp
    4865:	c3                   	retq   
    4866:	48 83 3c 24 00       	cmpq   $0x0,(%rsp)
    486b:	74 45                	je     48b2 <do_init_thread+0x182>
    486d:	49 8b 7e 50          	mov    0x50(%r14),%rdi
    4871:	ba ff 0f 00 00       	mov    $0xfff,%edx
    4876:	48 29 fa             	sub    %rdi,%rdx
    4879:	48 81 e7 00 f0 ff ff 	and    $0xfffffffffffff000,%rdi
    4880:	49 03 16             	add    (%r14),%rdx
    4883:	48 81 e2 00 f0 ff ff 	and    $0xfffffffffffff000,%rdx
    488a:	31 db                	xor    %ebx,%ebx
    488c:	31 f6                	xor    %esi,%esi
    488e:	e8 0d 4e 00 00       	callq  96a0 <memset>
    4893:	49 8b 06             	mov    (%r14),%rax
    4896:	49 8b 7e 50          	mov    0x50(%r14),%rdi
    489a:	48 29 f8             	sub    %rdi,%rax
    489d:	48 8b 54 24 08       	mov    0x8(%rsp),%rdx
    48a2:	48 39 d0             	cmp    %rdx,%rax
    48a5:	72 b0                	jb     4857 <do_init_thread+0x127>
    48a7:	48 8b 34 24          	mov    (%rsp),%rsi
    48ab:	e8 90 48 00 00       	callq  9140 <memcpy>
    48b0:	eb a5                	jmp    4857 <do_init_thread+0x127>
    48b2:	31 db                	xor    %ebx,%ebx
    48b4:	eb a1                	jmp    4857 <do_init_thread+0x127>
    48b6:	66 2e 0f 1f 84 00 00 	nopw   %cs:0x0(%rax,%rax,1)
    48bd:	00 00 00 

00000000000048c0 <do_ecall>:
    48c0:	55                   	push   %rbp
    48c1:	41 56                	push   %r14
    48c3:	53                   	push   %rbx
    48c4:	48 83 ec 10          	sub    $0x10,%rsp
    48c8:	49 89 d6             	mov    %rdx,%r14
    48cb:	48 89 f3             	mov    %rsi,%rbx
    48ce:	89 fd                	mov    %edi,%ebp
    48d0:	89 7c 24 04          	mov    %edi,0x4(%rsp)
    48d4:	48 89 74 24 08       	mov    %rsi,0x8(%rsp)
    48d9:	e8 29 c7 01 00       	callq  21007 <get_enclave_state>
    48de:	89 c1                	mov    %eax,%ecx
    48e0:	b8 01 00 00 00       	mov    $0x1,%eax
    48e5:	83 f9 02             	cmp    $0x2,%ecx
    48e8:	75 55                	jne    493f <do_ecall+0x7f>
    48ea:	e8 4b c7 01 00       	callq  2103a <get_thread_data>
    48ef:	48 85 c0             	test   %rax,%rax
    48f2:	74 18                	je     490c <do_ecall+0x4c>
    48f4:	48 8b 48 10          	mov    0x10(%rax),%rcx
    48f8:	48 3b 48 08          	cmp    0x8(%rax),%rcx
    48fc:	75 1c                	jne    491a <do_ecall+0x5a>
    48fe:	48 8d 05 3b dd 01 00 	lea    0x1dd3b(%rip),%rax        # 22640 <g_global_data>
    4905:	48 83 78 18 00       	cmpq   $0x0,0x18(%rax)
    490a:	74 0e                	je     491a <do_ecall+0x5a>
    490c:	4c 89 f7             	mov    %r14,%rdi
    490f:	31 f6                	xor    %esi,%esi
    4911:	e8 1a fe ff ff       	callq  4730 <do_init_thread>
    4916:	85 c0                	test   %eax,%eax
    4918:	75 25                	jne    493f <do_ecall+0x7f>
    491a:	e8 1b c7 01 00       	callq  2103a <get_thread_data>
    491f:	48 8b 48 10          	mov    0x10(%rax),%rcx
    4923:	48 3b 48 08          	cmp    0x8(%rax),%rcx
    4927:	75 1f                	jne    4948 <do_ecall+0x88>
    4929:	48 8d 3d b0 00 00 00 	lea    0xb0(%rip),%rdi        # 49e0 <_ZL10trts_ecalljPv>
    4930:	48 8d 74 24 04       	lea    0x4(%rsp),%rsi
    4935:	48 8d 54 24 08       	lea    0x8(%rsp),%rdx
    493a:	e8 21 00 00 00       	callq  4960 <_Z20random_stack_advanceILj2048E9_status_tJjPvEJRiRS1_EET0_PFS4_DpT1_EDpOT2_>
    493f:	48 83 c4 10          	add    $0x10,%rsp
    4943:	5b                   	pop    %rbx
    4944:	41 5e                	pop    %r14
    4946:	5d                   	pop    %rbp
    4947:	c3                   	retq   
    4948:	89 ef                	mov    %ebp,%edi
    494a:	48 89 de             	mov    %rbx,%rsi
    494d:	48 83 c4 10          	add    $0x10,%rsp
    4951:	5b                   	pop    %rbx
    4952:	41 5e                	pop    %r14
    4954:	5d                   	pop    %rbp
    4955:	e9 86 00 00 00       	jmpq   49e0 <_ZL10trts_ecalljPv>
    495a:	66 0f 1f 44 00 00    	nopw   0x0(%rax,%rax,1)

0000000000004960 <_Z20random_stack_advanceILj2048E9_status_tJjPvEJRiRS1_EET0_PFS4_DpT1_EDpOT2_>:
    4960:	55                   	push   %rbp
    4961:	48 89 e5             	mov    %rsp,%rbp
    4964:	41 56                	push   %r14
    4966:	41 54                	push   %r12
    4968:	53                   	push   %rbx
    4969:	50                   	push   %rax
    496a:	49 89 d6             	mov    %rdx,%r14
    496d:	49 89 f4             	mov    %rsi,%r12
    4970:	48 89 fb             	mov    %rdi,%rbx
    4973:	64 48 8b 04 25 28 00 	mov    %fs:0x28,%rax
    497a:	00 00 
    497c:	48 89 45 e0          	mov    %rax,-0x20(%rbp)
    4980:	0f c7 f6             	rdrand %esi
    4983:	81 e6 ff 07 00 00    	and    $0x7ff,%esi
    4989:	8d 46 10             	lea    0x10(%rsi),%eax
    498c:	83 e0 f0             	and    $0xfffffff0,%eax
    498f:	48 89 e7             	mov    %rsp,%rdi
    4992:	48 29 c7             	sub    %rax,%rdi
    4995:	48 89 fc             	mov    %rdi,%rsp
    4998:	48 8d 05 81 12 22 00 	lea    0x221281(%rip),%rax        # 225c20 <EDMM_supported>
    499f:	83 38 00             	cmpl   $0x0,(%rax)
    49a2:	75 08                	jne    49ac <_Z20random_stack_advanceILj2048E9_status_tJjPvEJRiRS1_EET0_PFS4_DpT1_EDpOT2_+0x4c>
    49a4:	83 c6 01             	add    $0x1,%esi
    49a7:	e8 c4 f0 ff ff       	callq  3a70 <random_stack_notify_gdb>
    49ac:	48 89 df             	mov    %rbx,%rdi
    49af:	4c 89 e6             	mov    %r12,%rsi
    49b2:	4c 89 f2             	mov    %r14,%rdx
    49b5:	e8 e6 04 00 00       	callq  4ea0 <_ZL30_random_stack_noinline_wrapperI9_status_tJjPvEJRiRS1_EET_PFS4_DpT0_EDpOT1_>
    49ba:	64 48 8b 0c 25 28 00 	mov    %fs:0x28,%rcx
    49c1:	00 00 
    49c3:	48 3b 4d e0          	cmp    -0x20(%rbp),%rcx
    49c7:	75 0b                	jne    49d4 <_Z20random_stack_advanceILj2048E9_status_tJjPvEJRiRS1_EET0_PFS4_DpT1_EDpOT2_+0x74>
    49c9:	48 8d 65 e8          	lea    -0x18(%rbp),%rsp
    49cd:	5b                   	pop    %rbx
    49ce:	41 5c                	pop    %r12
    49d0:	41 5e                	pop    %r14
    49d2:	5d                   	pop    %rbp
    49d3:	c3                   	retq   
    49d4:	e8 f7 17 00 00       	callq  61d0 <__stack_chk_fail>
    49d9:	0f 1f 80 00 00 00 00 	nopl   0x0(%rax)

00000000000049e0 <_ZL10trts_ecalljPv>:
    49e0:	55                   	push   %rbp
    49e1:	41 56                	push   %r14
    49e3:	41 54                	push   %r12
    49e5:	53                   	push   %rbx
    49e6:	50                   	push   %rax
    49e7:	49 89 f6             	mov    %rsi,%r14
    49ea:	89 fb                	mov    %edi,%ebx
    49ec:	80 3d 15 16 22 00 00 	cmpb   $0x0,0x221615(%rip)        # 226008 <_ZL16g_is_first_ecall>
    49f3:	0f 85 f3 00 00 00    	jne    4aec <_ZL10trts_ecalljPv+0x10c>
    49f9:	8d 43 07             	lea    0x7(%rbx),%eax
    49fc:	83 f8 01             	cmp    $0x1,%eax
    49ff:	77 32                	ja     4a33 <_ZL10trts_ecalljPv+0x53>
    4a01:	e8 34 c6 01 00       	callq  2103a <get_thread_data>
    4a06:	48 8b 48 08          	mov    0x8(%rax),%rcx
    4a0a:	bd 01 00 00 00       	mov    $0x1,%ebp
    4a0f:	48 3b 48 10          	cmp    0x10(%rax),%rcx
    4a13:	0f 85 c6 00 00 00    	jne    4adf <_ZL10trts_ecalljPv+0xff>
    4a19:	83 fb fa             	cmp    $0xfffffffa,%ebx
    4a1c:	0f 84 9f 00 00 00    	je     4ac1 <_ZL10trts_ecalljPv+0xe1>
    4a22:	83 fb f9             	cmp    $0xfffffff9,%ebx
    4a25:	75 0c                	jne    4a33 <_ZL10trts_ecalljPv+0x53>
    4a27:	48 8d 05 b2 05 00 00 	lea    0x5b2(%rip),%rax        # 4fe0 <do_run_switchless_tworker>
    4a2e:	e9 95 00 00 00       	jmpq   4ac8 <_ZL10trts_ecalljPv+0xe8>
    4a33:	89 db                	mov    %ebx,%ebx
    4a35:	4c 8d 25 c4 11 22 00 	lea    0x2211c4(%rip),%r12        # 225c00 <g_ecall_table>
    4a3c:	bd 01 10 00 00       	mov    $0x1001,%ebp
    4a41:	49 39 1c 24          	cmp    %rbx,(%r12)
    4a45:	0f 86 94 00 00 00    	jbe    4adf <_ZL10trts_ecalljPv+0xff>
    4a4b:	e8 ea c5 01 00       	callq  2103a <get_thread_data>
    4a50:	0f ae e8             	lfence 
    4a53:	48 8b 48 08          	mov    0x8(%rax),%rcx
    4a57:	48 3b 48 10          	cmp    0x10(%rax),%rcx
    4a5b:	75 16                	jne    4a73 <_ZL10trts_ecalljPv+0x93>
    4a5d:	48 89 d8             	mov    %rbx,%rax
    4a60:	48 c1 e0 04          	shl    $0x4,%rax
    4a64:	bd 07 10 00 00       	mov    $0x1007,%ebp
    4a69:	41 80 7c 04 10 00    	cmpb   $0x0,0x10(%r12,%rax,1)
    4a6f:	75 6e                	jne    4adf <_ZL10trts_ecalljPv+0xff>
    4a71:	eb 2d                	jmp    4aa0 <_ZL10trts_ecalljPv+0xc0>
    4a73:	48 81 79 20 44 49 43 	cmpq   $0x4f434944,0x20(%rcx)
    4a7a:	4f 
    4a7b:	0f 85 dd 00 00 00    	jne    4b5e <_ZL10trts_ecalljPv+0x17e>
    4a81:	48 8b 41 28          	mov    0x28(%rcx),%rax
    4a85:	48 8d 0d 14 c9 01 00 	lea    0x1c914(%rip),%rcx        # 213a0 <g_dyn_entry_table>
    4a8c:	48 3b 01             	cmp    (%rcx),%rax
    4a8f:	73 4e                	jae    4adf <_ZL10trts_ecalljPv+0xff>
    4a91:	49 0f af 04 24       	imul   (%r12),%rax
    4a96:	48 01 d8             	add    %rbx,%rax
    4a99:	80 7c 01 08 00       	cmpb   $0x0,0x8(%rcx,%rax,1)
    4a9e:	74 3a                	je     4ada <_ZL10trts_ecalljPv+0xfa>
    4aa0:	48 c1 e3 04          	shl    $0x4,%rbx
    4aa4:	49 8b 5c 1c 08       	mov    0x8(%r12,%rbx,1),%rbx
    4aa9:	48 89 df             	mov    %rbx,%rdi
    4aac:	31 f6                	xor    %esi,%esi
    4aae:	e8 fd ec ff ff       	callq  37b0 <sgx_is_within_enclave>
    4ab3:	85 c0                	test   %eax,%eax
    4ab5:	48 89 d8             	mov    %rbx,%rax
    4ab8:	75 0e                	jne    4ac8 <_ZL10trts_ecalljPv+0xe8>
    4aba:	bd 01 00 00 00       	mov    $0x1,%ebp
    4abf:	eb 1e                	jmp    4adf <_ZL10trts_ecalljPv+0xff>
    4ac1:	48 8d 05 08 05 00 00 	lea    0x508(%rip),%rax        # 4fd0 <do_init_switchless>
    4ac8:	0f ae e8             	lfence 
    4acb:	4c 89 f7             	mov    %r14,%rdi
    4ace:	48 83 c4 08          	add    $0x8,%rsp
    4ad2:	5b                   	pop    %rbx
    4ad3:	41 5c                	pop    %r12
    4ad5:	41 5e                	pop    %r14
    4ad7:	5d                   	pop    %rbp
    4ad8:	ff e0                	jmpq   *%rax
    4ada:	bd 07 10 00 00       	mov    $0x1007,%ebp
    4adf:	89 e8                	mov    %ebp,%eax
    4ae1:	48 83 c4 08          	add    $0x8,%rsp
    4ae5:	5b                   	pop    %rbx
    4ae6:	41 5c                	pop    %r12
    4ae8:	41 5e                	pop    %r14
    4aea:	5d                   	pop    %rbp
    4aeb:	c3                   	retq   
    4aec:	e8 49 c5 01 00       	callq  2103a <get_thread_data>
    4af1:	48 8b 48 08          	mov    0x8(%rax),%rcx
    4af5:	bd 07 10 00 00       	mov    $0x1007,%ebp
    4afa:	48 3b 48 10          	cmp    0x10(%rax),%rcx
    4afe:	75 df                	jne    4adf <_ZL10trts_ecalljPv+0xff>
    4b00:	48 8d 3d a1 1a 22 00 	lea    0x221aa1(%rip),%rdi        # 2265a8 <_ZL10g_ife_lock>
    4b07:	e8 b4 4e 00 00       	callq  99c0 <sgx_spin_lock>
    4b0c:	80 3d f5 14 22 00 00 	cmpb   $0x0,0x2214f5(%rip)        # 226008 <_ZL16g_is_first_ecall>
    4b13:	74 38                	je     4b4d <_ZL10trts_ecalljPv+0x16d>
    4b15:	48 8d 05 04 11 22 00 	lea    0x221104(%rip),%rax        # 225c20 <EDMM_supported>
    4b1c:	83 38 00             	cmpl   $0x0,(%rax)
    4b1f:	74 20                	je     4b41 <_ZL10trts_ecalljPv+0x161>
    4b21:	48 8b 3d b0 14 22 00 	mov    0x2214b0(%rip),%rdi        # 225fd8 <_GLOBAL_OFFSET_TABLE_+0x18>
    4b28:	e8 93 12 00 00       	callq  5dc0 <change_protection>
    4b2d:	85 c0                	test   %eax,%eax
    4b2f:	74 10                	je     4b41 <_ZL10trts_ecalljPv+0x161>
    4b31:	89 c5                	mov    %eax,%ebp
    4b33:	48 8d 3d 6e 1a 22 00 	lea    0x221a6e(%rip),%rdi        # 2265a8 <_ZL10g_ife_lock>
    4b3a:	e8 c1 4e 00 00       	callq  9a00 <sgx_spin_unlock>
    4b3f:	eb 9e                	jmp    4adf <_ZL10trts_ecalljPv+0xff>
    4b41:	e8 fa 14 00 00       	callq  6040 <init_global_object>
    4b46:	c6 05 bb 14 22 00 00 	movb   $0x0,0x2214bb(%rip)        # 226008 <_ZL16g_is_first_ecall>
    4b4d:	48 8d 3d 54 1a 22 00 	lea    0x221a54(%rip),%rdi        # 2265a8 <_ZL10g_ife_lock>
    4b54:	e8 a7 4e 00 00       	callq  9a00 <sgx_spin_unlock>
    4b59:	e9 9b fe ff ff       	jmpq   49f9 <_ZL10trts_ecalljPv+0x19>
    4b5e:	e8 d0 c7 01 00       	callq  21333 <abort>
    4b63:	66 2e 0f 1f 84 00 00 	nopw   %cs:0x0(%rax,%rax,1)
    4b6a:	00 00 00 
    4b6d:	0f 1f 00             	nopl   (%rax)

0000000000004b70 <do_ecall_add_thread>:
    4b70:	55                   	push   %rbp
    4b71:	41 56                	push   %r14
    4b73:	53                   	push   %rbx
    4b74:	48 83 ec 10          	sub    $0x10,%rsp
    4b78:	48 89 fb             	mov    %rdi,%rbx
    4b7b:	e8 ba c4 01 00       	callq  2103a <get_thread_data>
    4b80:	bd 01 00 00 00       	mov    $0x1,%ebp
    4b85:	48 85 c0             	test   %rax,%rax
    4b88:	0f 84 f0 00 00 00    	je     4c7e <do_ecall_add_thread+0x10e>
    4b8e:	48 85 db             	test   %rbx,%rbx
    4b91:	0f 84 e7 00 00 00    	je     4c7e <do_ecall_add_thread+0x10e>
    4b97:	48 8b 40 30          	mov    0x30(%rax),%rax
    4b9b:	83 e0 01             	and    $0x1,%eax
    4b9e:	48 85 c0             	test   %rax,%rax
    4ba1:	0f 84 d7 00 00 00    	je     4c7e <do_ecall_add_thread+0x10e>
    4ba7:	be 08 00 00 00       	mov    $0x8,%esi
    4bac:	48 89 df             	mov    %rbx,%rdi
    4baf:	e8 3c ec ff ff       	callq  37f0 <sgx_is_outside_enclave>
    4bb4:	85 c0                	test   %eax,%eax
    4bb6:	0f 84 c2 00 00 00    	je     4c7e <do_ecall_add_thread+0x10e>
    4bbc:	4c 8b 33             	mov    (%rbx),%r14
    4bbf:	4d 85 f6             	test   %r14,%r14
    4bc2:	0f 84 b6 00 00 00    	je     4c7e <do_ecall_add_thread+0x10e>
    4bc8:	0f ae e8             	lfence 
    4bcb:	e8 6a c4 01 00       	callq  2103a <get_thread_data>
    4bd0:	48 85 c0             	test   %rax,%rax
    4bd3:	0f 84 a5 00 00 00    	je     4c7e <do_ecall_add_thread+0x10e>
    4bd9:	f6 40 30 01          	testb  $0x1,0x30(%rax)
    4bdd:	0f 84 9b 00 00 00    	je     4c7e <do_ecall_add_thread+0x10e>
    4be3:	48 83 3d b5 19 22 00 	cmpq   $0x0,0x2219b5(%rip)        # 2265a0 <_ZL12g_tcs_cookie>
    4bea:	00 
    4beb:	0f 84 aa 00 00 00    	je     4c9b <do_ecall_add_thread+0x12b>
    4bf1:	bf 10 00 00 00       	mov    $0x10,%edi
    4bf6:	e8 f5 15 00 00       	callq  61f0 <dlmalloc>
    4bfb:	48 85 c0             	test   %rax,%rax
    4bfe:	74 7e                	je     4c7e <do_ecall_add_thread+0x10e>
    4c00:	48 8b 0d 99 19 22 00 	mov    0x221999(%rip),%rcx        # 2265a0 <_ZL12g_tcs_cookie>
    4c07:	4c 31 f1             	xor    %r14,%rcx
    4c0a:	48 89 08             	mov    %rcx,(%rax)
    4c0d:	48 8b 0d 84 19 22 00 	mov    0x221984(%rip),%rcx        # 226598 <_ZL10g_tcs_node>
    4c14:	48 89 48 08          	mov    %rcx,0x8(%rax)
    4c18:	48 89 05 79 19 22 00 	mov    %rax,0x221979(%rip)        # 226598 <_ZL10g_tcs_node>
    4c1f:	4c 89 f7             	mov    %r14,%rdi
    4c22:	e8 d9 f8 ff ff       	callq  4500 <do_add_thread>
    4c27:	85 c0                	test   %eax,%eax
    4c29:	74 51                	je     4c7c <do_ecall_add_thread+0x10c>
    4c2b:	89 c5                	mov    %eax,%ebp
    4c2d:	e8 08 c4 01 00       	callq  2103a <get_thread_data>
    4c32:	48 85 c0             	test   %rax,%rax
    4c35:	74 47                	je     4c7e <do_ecall_add_thread+0x10e>
    4c37:	f6 40 30 01          	testb  $0x1,0x30(%rax)
    4c3b:	74 41                	je     4c7e <do_ecall_add_thread+0x10e>
    4c3d:	48 8b 3d 54 19 22 00 	mov    0x221954(%rip),%rdi        # 226598 <_ZL10g_tcs_node>
    4c44:	48 85 ff             	test   %rdi,%rdi
    4c47:	74 35                	je     4c7e <do_ecall_add_thread+0x10e>
    4c49:	48 8b 05 50 19 22 00 	mov    0x221950(%rip),%rax        # 2265a0 <_ZL12g_tcs_cookie>
    4c50:	48 8b 0f             	mov    (%rdi),%rcx
    4c53:	48 31 c1             	xor    %rax,%rcx
    4c56:	49 39 ce             	cmp    %rcx,%r14
    4c59:	74 2e                	je     4c89 <do_ecall_add_thread+0x119>
    4c5b:	48 89 f9             	mov    %rdi,%rcx
    4c5e:	48 8b 7f 08          	mov    0x8(%rdi),%rdi
    4c62:	48 85 ff             	test   %rdi,%rdi
    4c65:	74 17                	je     4c7e <do_ecall_add_thread+0x10e>
    4c67:	48 8b 17             	mov    (%rdi),%rdx
    4c6a:	48 31 c2             	xor    %rax,%rdx
    4c6d:	49 39 d6             	cmp    %rdx,%r14
    4c70:	75 e9                	jne    4c5b <do_ecall_add_thread+0xeb>
    4c72:	48 8b 47 08          	mov    0x8(%rdi),%rax
    4c76:	48 89 41 08          	mov    %rax,0x8(%rcx)
    4c7a:	eb 18                	jmp    4c94 <do_ecall_add_thread+0x124>
    4c7c:	31 ed                	xor    %ebp,%ebp
    4c7e:	89 e8                	mov    %ebp,%eax
    4c80:	48 83 c4 10          	add    $0x10,%rsp
    4c84:	5b                   	pop    %rbx
    4c85:	41 5e                	pop    %r14
    4c87:	5d                   	pop    %rbp
    4c88:	c3                   	retq   
    4c89:	48 8b 47 08          	mov    0x8(%rdi),%rax
    4c8d:	48 89 05 04 19 22 00 	mov    %rax,0x221904(%rip)        # 226598 <_ZL10g_tcs_node>
    4c94:	e8 a7 2e 00 00       	callq  7b40 <dlfree>
    4c99:	eb e3                	jmp    4c7e <do_ecall_add_thread+0x10e>
    4c9b:	48 c7 44 24 08 00 00 	movq   $0x0,0x8(%rsp)
