	.file	"test2.c"
	.section	.rodata
.LC0:
	.string	"init_ret addr: %p\n"
.LC1:
	.string	"fini_ret addr: %p\n"
	.text
	.globl	foo
	.type	foo, @function
foo:
.LFB0:
	.cfi_startproc
	pushq	%rbp
	.cfi_def_cfa_offset 16
	.cfi_offset 6, -16
	movq	%rsp, %rbp
	.cfi_def_cfa_register 6
	subq	$64, %rsp
#APP
# 7 "test2.c" 1
	movq 8(%rbp), %rax
movq %rax, %rax;
# 0 "" 2
#NO_APP
	movq	%rax, -16(%rbp)
	movl	$1, -52(%rbp)
	movl	-52(%rbp), %eax
	movl	%eax, -48(%rbp)
	movl	-48(%rbp), %eax
	movl	%eax, -44(%rbp)
	movl	-44(%rbp), %eax
	movl	%eax, -40(%rbp)
	movl	-40(%rbp), %eax
	movl	%eax, -36(%rbp)
	movl	-36(%rbp), %eax
	movl	%eax, -32(%rbp)
	movl	-32(%rbp), %eax
	movl	%eax, -28(%rbp)
	movl	-28(%rbp), %eax
	movl	%eax, -24(%rbp)
	movl	-24(%rbp), %eax
	movl	%eax, -20(%rbp)
	movq	-16(%rbp), %rax
	movq	%rax, %rsi
	movl	$.LC0, %edi
	movl	$0, %eax
	call	printf
#APP
# 18 "test2.c" 1
	movq (%rsp), %rax
movq %rax, %rax;
# 0 "" 2
#NO_APP
	movq	%rax, -8(%rbp)
	movq	-8(%rbp), %rax
	movq	%rax, %rsi
	movl	$.LC1, %edi
	movl	$0, %eax
	call	printf
	movl	$0, %eax
	leave
	.cfi_def_cfa 7, 8
	ret
	.cfi_endproc
.LFE0:
	.size	foo, .-foo
	.section	.rodata
.LC2:
	.string	"fini"
	.text
	.globl	main
	.type	main, @function
main:
.LFB1:
	.cfi_startproc
	pushq	%rbp
	.cfi_def_cfa_offset 16
	.cfi_offset 6, -16
	movq	%rsp, %rbp
	.cfi_def_cfa_register 6
	movl	$0, %eax
	call	foo
	movl	$.LC2, %edi
	call	puts
	movl	$0, %eax
	popq	%rbp
	.cfi_def_cfa 7, 8
	ret
	.cfi_endproc
.LFE1:
	.size	main, .-main
	.ident	"GCC: (Ubuntu 5.4.0-6ubuntu1~16.04.12) 5.4.0 20160609"
	.section	.note.GNU-stack,"",@progbits
